(lp0
(dp1
I0
(dp2
S'pair'
p3
S'EURCAD'
p4
sS'price'
p5
cnumpy.core.multiarray
scalar
p6
(cnumpy
dtype
p7
(S'f8'
p8
I0
I1
tp9
Rp10
(I3
S'<'
p11
NNNI-1
I-1
I0
tp12
bS'\xe7bF\x92\xe8\xd3\xf7?'
p13
tp14
Rp15
sS'side'
p16
S'buy'
p17
ssI514
(dp18
g3
S'EURCAD'
p19
sg5
g6
(g10
S'\x8az\xe2\xfbD!\xf8?'
p20
tp21
Rp22
sg16
S'sell'
p23
ssI3
(dp24
g3
S'EURCAD'
p25
sg5
g6
(g10
S'\x90\xfa\xdb=\x1a\xe5\xf7?'
p26
tp27
Rp28
sg16
g17
ssI518
(dp29
g3
S'EURCAD'
p30
sg5
g6
(g10
S'\xc3n\xee\xe0\x9f\x0b\xf8?'
p31
tp32
Rp33
sg16
g23
ssI7
(dp34
g3
S'EURCAD'
p35
sg5
g6
(g10
S'w\xf3\x8d\xd8\xb0\x0b\xf8?'
p36
tp37
Rp38
sg16
g17
ssI520
(dp39
g3
S'EURCAD'
p40
sg5
g6
(g10
S'ZE\x17\x99\x1f\xd6\xf7?'
p41
tp42
Rp43
sg16
g17
ssI521
(dp44
g3
S'EURCAD'
p45
sg5
g6
(g10
S'\xa4\x08\xa6\xa0d\x0c\xf8?'
p46
tp47
Rp48
sg16
g23
ssI10
(dp49
g3
S'EURCAD'
p50
sg5
g6
(g10
S'Z\xe6\xbf\x17\x125\xf8?'
p51
tp52
Rp53
sg16
g17
ssI12
(dp54
g3
S'EURCAD'
p55
sg5
g6
(g10
S'\x8f7\xd3\x8aGK\xf8?'
p56
tp57
Rp58
sg16
g17
ssI14
(dp59
g3
S'EURCAD'
p60
sg5
g6
(g10
S"\xf1s\xd4\x82'\x95\xf8?"
p61
tp62
Rp63
sg16
g17
ssI15
(dp64
g3
S'EURCAD'
p65
sg5
g6
(g10
S'\xc5;D(\xb5\xa4\xf8?'
p66
tp67
Rp68
sg16
g17
ssI528
(dp69
g3
S'EURCAD'
p70
sg5
g6
(g10
S'\xf6\x82\xf2\x884\xe5\xf7?'
p71
tp72
Rp73
sg16
g17
ssI18
(dp74
g3
S'EURCAD'
p75
sg5
g6
(g10
S'\xa6\x9c>d\x13n\xf8?'
p76
tp77
Rp78
sg16
g17
ssI515
(dp79
g3
S'EURCAD'
p80
sg5
g6
(g10
S'z\xca\x14\xbf\x07J\xf8?'
p81
tp82
Rp83
sg16
g17
ssI20
(dp84
g3
S'EURCAD'
p85
sg5
g6
(g10
S'\x91\t\xc7\xa8\x8b\x93\xf8?'
p86
tp87
Rp88
sg16
g17
ssI533
(dp89
g3
S'EURCAD'
p90
sg5
g6
(g10
S'\xe5ZJiG,\xf8?'
p91
tp92
Rp93
sg16
g23
ssI536
(dp94
g3
S'EURCAD'
p95
sg5
g6
(g10
S'\xcf\x00\xf4>\x95\xe2\xf7?'
p96
tp97
Rp98
sg16
g17
ssI26
(dp99
g3
S'EURCAD'
p100
sg5
g6
(g10
S'\xd26\xd9w\xec\xae\xf8?'
p101
tp102
Rp103
sg16
g23
ssI27
(dp104
g3
S'EURCAD'
p105
sg5
g6
(g10
S'\xc8\xe1\xc4H\x11\x9f\xf8?'
p106
tp107
Rp108
sg16
g23
ssI30
(dp109
g3
S'EURCAD'
p110
sg5
g6
(g10
S'RW\x9em\x9b\x93\xf8?'
p111
tp112
Rp113
sg16
g23
ssI31
(dp114
g3
S'EURCAD'
p115
sg5
g6
(g10
S'G\xaf~\x80\xa1\x80\xf8?'
p116
tp117
Rp118
sg16
g17
ssI32
(dp119
g3
S'EURCAD'
p120
sg5
g6
(g10
S'X}\xec\x0c\x92R\xf8?'
p121
tp122
Rp123
sg16
g23
ssI545
(dp124
g3
S'EURCAD'
p125
sg5
g6
(g10
S'\x16\xcd\x92\xe2\xc4\x9e\xf8?'
p126
tp127
Rp128
sg16
g23
ssI34
(dp129
g3
S'EURCAD'
p130
sg5
g6
(g10
S'\x84{\xdf\x08yI\xf8?'
p131
tp132
Rp133
sg16
g23
ssI35
(dp134
g3
S'EURCAD'
p135
sg5
g6
(g10
S'\x9a\xa3\xae\xf6\x17>\xf8?'
p136
tp137
Rp138
sg16
g23
ssI548
(dp139
g3
S'EURCAD'
p140
sg5
g6
(g10
S'\xff\xf5\xa8\xfa\x03\x93\xf8?'
p141
tp142
Rp143
sg16
g17
ssI38
(dp144
g3
S'EURCAD'
p145
sg5
g6
(g10
S'\xeeKoq\xa5\x1b\xf8?'
p146
tp147
Rp148
sg16
g23
ssI553
(dp149
g3
S'EURCAD'
p150
sg5
g6
(g10
S'\xc8\x19\xc8\xdf\x7f\xba\xf8?'
p151
tp152
Rp153
sg16
g17
ssI554
(dp154
g3
S'EURCAD'
p155
sg5
g6
(g10
S'\xe5>\xd3\xb9\xe5\xc6\xf8?'
p156
tp157
Rp158
sg16
g17
ssI519
(dp159
g3
S'EURCAD'
p160
sg5
g6
(g10
S'\x13,Dz<\xf9\xf7?'
p161
tp162
Rp163
sg16
g17
ssI44
(dp164
g3
S'EURCAD'
p165
sg5
g6
(g10
S'/Y\x8dN\xe6\xeb\xf7?'
p166
tp167
Rp168
sg16
g23
ssI45
(dp169
g3
S'EURCAD'
p170
sg5
g6
(g10
S'\x8e\xc1\xb5\t\x88\x08\xf8?'
p171
tp172
Rp173
sg16
g17
ssI46
(dp174
g3
S'EURCAD'
p175
sg5
g6
(g10
S'\xe3Ne\xa8N*\xf8?'
p176
tp177
Rp178
sg16
g23
ssI559
(dp179
g3
S'EURCAD'
p180
sg5
g6
(g10
S'=r\\a8\xf4\xf8?'
p181
tp182
Rp183
sg16
g17
ssI48
(dp184
g3
S'EURCAD'
p185
sg5
g6
(g10
S'\xa6\xac\x9b\xe0\xbbX\xf8?'
p186
tp187
Rp188
sg16
g17
ssI49
(dp189
g3
S'EURCAD'
p190
sg5
g6
(g10
S'V\xad\xf5\xbb\xe4P\xf8?'
p191
tp192
Rp193
sg16
g17
ssI530
(dp194
g3
S'EURCAD'
p195
sg5
g6
(g10
S'b\xb6\xcb\xd3\xb1\x0f\xf8?'
p196
tp197
Rp198
sg16
g23
ssI51
(dp199
g3
S'EURCAD'
p200
sg5
g6
(g10
S'\x84\xc1\xbe\xce\xa0\x80\xf8?'
p201
tp202
Rp203
sg16
g23
ssI52
(dp204
g3
S'EURCAD'
p205
sg5
g6
(g10
S'|\xa8\xa0\xc0Gr\xf8?'
p206
tp207
Rp208
sg16
g23
ssI54
(dp209
g3
S'EURCAD'
p210
sg5
g6
(g10
S'xb\xf7K\x90q\xf8?'
p211
tp212
Rp213
sg16
g23
ssI567
(dp214
g3
S'EURCAD'
p215
sg5
g6
(g10
S'q\xa0\x97T\xe2\x11\xf9?'
p216
tp217
Rp218
sg16
g17
ssI56
(dp219
g3
S'EURCAD'
p220
sg5
g6
(g10
S'\x85\x1f\xc9\x0b\xccC\xf8?'
p221
tp222
Rp223
sg16
g17
ssI57
(dp224
g3
S'EURCAD'
p225
sg5
g6
(g10
S'$\xff\xf9,_Z\xf8?'
p226
tp227
Rp228
sg16
g17
ssI59
(dp229
g3
S'EURCAD'
p230
sg5
g6
(g10
S'TwW\x83\xffU\xf8?'
p231
tp232
Rp233
sg16
g17
ssI66
(dp234
g3
S'EURCAD'
p235
sg5
g6
(g10
S'L\xbb\xc6\xb8\xbc\x88\xf8?'
p236
tp237
Rp238
sg16
g23
ssI67
(dp239
g3
S'EURCAD'
p240
sg5
g6
(g10
S'j\xcd\x92\x16\x9ae\xf8?'
p241
tp242
Rp243
sg16
g23
ssI68
(dp244
g3
S'EURCAD'
p245
sg5
g6
(g10
S'\xb3oi\t\xb0M\xf8?'
p246
tp247
Rp248
sg16
g17
ssI70
(dp249
g3
S'EURCAD'
p250
sg5
g6
(g10
S'\x1c\xf05\x1e~D\xf8?'
p251
tp252
Rp253
sg16
g17
ssI72
(dp254
g3
S'EURCAD'
p255
sg5
g6
(g10
S'\x83\xea\x0b\xcetc\xf8?'
p256
tp257
Rp258
sg16
g23
ssI73
(dp259
g3
S'EURCAD'
p260
sg5
g6
(g10
S'\xce\x14\xc7)+`\xf8?'
p261
tp262
Rp263
sg16
g23
ssI75
(dp264
g3
S'EURCAD'
p265
sg5
g6
(g10
S'\xa6\xbd\x0c\x19yG\xf8?'
p266
tp267
Rp268
sg16
g17
ssI81
(dp269
g3
S'EURCAD'
p270
sg5
g6
(g10
S'b\xef\x91\x80(\xa2\xf8?'
p271
tp272
Rp273
sg16
g17
ssI83
(dp274
g3
S'EURCAD'
p275
sg5
g6
(g10
S'\xc1\x12\xdb\xefh\xd3\xf8?'
p276
tp277
Rp278
sg16
g17
ssI526
(dp279
g3
S'EURCAD'
p280
sg5
g6
(g10
S'G\xf3\xb4\x85\x8c\xc9\xf7?'
p281
tp282
Rp283
sg16
g17
ssI87
(dp284
g3
S'EURCAD'
p285
sg5
g6
(g10
S'[\xe2\xddE\x8e\x06\xf9?'
p286
tp287
Rp288
sg16
g17
ssI88
(dp289
g3
S'EURCAD'
p290
sg5
g6
(g10
S'\xd5\xe7L\x10\xe4\x1e\xf9?'
p291
tp292
Rp293
sg16
g17
ssI527
(dp294
g3
S'EURCAD'
p295
sg5
g6
(g10
S'\x08f\xfeGB\xde\xf7?'
p296
tp297
Rp298
sg16
g17
ssI93
(dp299
g3
S'EURCAD'
p300
sg5
g6
(g10
S'\xc4\xdb\xdb\x16Fx\xf9?'
p301
tp302
Rp303
sg16
g23
ssI95
(dp304
g3
S'EURCAD'
p305
sg5
g6
(g10
S'\xea!a\x970|\xf9?'
p306
tp307
Rp308
sg16
g23
ssI96
(dp309
g3
S'EURCAD'
p310
sg5
g6
(g10
S'\x0f\x1c3\xb4F^\xf9?'
p311
tp312
Rp313
sg16
g17
ssI99
(dp314
g3
S'EURCAD'
p315
sg5
g6
(g10
S'[V\x88\xe8/\x18\xf9?'
p316
tp317
Rp318
sg16
g17
ssI101
(dp319
g3
S'EURCAD'
p320
sg5
g6
(g10
S'#\x80\x82U\xa7\xcd\xf8?'
p321
tp322
Rp323
sg16
g23
ssI104
(dp324
g3
S'EURCAD'
p325
sg5
g6
(g10
S'\xdc:\xc9:\x03\x84\xf8?'
p326
tp327
Rp328
sg16
g23
ssI105
(dp329
g3
S'EURCAD'
p330
sg5
g6
(g10
S'\xa1\xe1\xccD\xcb\x95\xf8?'
p331
tp332
Rp333
sg16
g23
ssI106
(dp334
g3
S'EURCAD'
p335
sg5
g6
(g10
S'c\n\x07\xeb\xd3\x90\xf8?'
p336
tp337
Rp338
sg16
g23
ssI107
(dp339
g3
S'EURCAD'
p340
sg5
g6
(g10
S'0\x87\xaeU\xe3\x8e\xf8?'
p341
tp342
Rp343
sg16
g23
ssI109
(dp344
g3
S'EURCAD'
p345
sg5
g6
(g10
S'\xc9\xb3\xc2#\xecu\xf8?'
p346
tp347
Rp348
sg16
g23
ssI115
(dp349
g3
S'EURCAD'
p350
sg5
g6
(g10
S'\x873\x08\xfe#\x84\xf8?'
p351
tp352
Rp353
sg16
g17
ssI116
(dp354
g3
S'EURCAD'
p355
sg5
g6
(g10
S'\x92H,\x12\xa7\xa4\xf8?'
p356
tp357
Rp358
sg16
g17
ssI121
(dp359
g3
S'EURCAD'
p360
sg5
g6
(g10
S'\xc3\xf8e6\x07\xf3\xf8?'
p361
tp362
Rp363
sg16
g23
ssI560
(dp364
g3
S'EURCAD'
p365
sg5
g6
(g10
S'\x19\x82\x80qB\xdd\xf8?'
p366
tp367
Rp368
sg16
g17
ssI125
(dp369
g3
S'EURCAD'
p370
sg5
g6
(g10
S'\xa2\x0b(?\xc2\xc0\xf8?'
p371
tp372
Rp373
sg16
g17
ssI126
(dp374
g3
S'EURCAD'
p375
sg5
g6
(g10
S'\xbfIc\xc9\x04\xad\xf8?'
p376
tp377
Rp378
sg16
g17
ssI127
(dp379
g3
S'EURCAD'
p380
sg5
g6
(g10
S'$\x0f\xef\xc2\xb0\xe1\xf8?'
p381
tp382
Rp383
sg16
g17
ssI129
(dp384
g3
S'EURCAD'
p385
sg5
g6
(g10
S'\x1e\xa7PbJ\xed\xf8?'
p386
tp387
Rp388
sg16
g17
ssI131
(dp389
g3
S'EURCAD'
p390
sg5
g6
(g10
S'\x8cj?\x83\x110\xf9?'
p391
tp392
Rp393
sg16
g23
ssI133
(dp394
g3
S'EURCAD'
p395
sg5
g6
(g10
S'L5\xd2\\\x03/\xf9?'
p396
tp397
Rp398
sg16
g23
ssI134
(dp399
g3
S'EURCAD'
p400
sg5
g6
(g10
S'~UX\xbd\xd3\t\xf9?'
p401
tp402
Rp403
sg16
g17
ssI138
(dp404
g3
S'EURCAD'
p405
sg5
g6
(g10
S'\x9dr\xa2BP\xf9\xf8?'
p406
tp407
Rp408
sg16
g23
ssI141
(dp409
g3
S'EURCAD'
p410
sg5
g6
(g10
S'omG\xaf"1\xf9?'
p411
tp412
Rp413
sg16
g23
ssI143
(dp414
g3
S'EURCAD'
p415
sg5
g6
(g10
S'\xa6\x1bFM\n\xb9\xf8?'
p416
tp417
Rp418
sg16
g17
ssI145
(dp419
g3
S'EURCAD'
p420
sg5
g6
(g10
S'\xbaY]r\xce\x96\xf8?'
p421
tp422
Rp423
sg16
g23
ssI146
(dp424
g3
S'EURCAD'
p425
sg5
g6
(g10
S'\xa4\xc5L\xd9D\xa7\xf8?'
p426
tp427
Rp428
sg16
g23
ssI147
(dp429
g3
S'EURCAD'
p430
sg5
g6
(g10
S'<\x94\xef\x05U\xdc\xf8?'
p431
tp432
Rp433
sg16
g23
ssI148
(dp434
g3
S'EURCAD'
p435
sg5
g6
(g10
S'*\x9e\xeb$\x8b\xc2\xf8?'
p436
tp437
Rp438
sg16
g23
ssI149
(dp439
g3
S'EURCAD'
p440
sg5
g6
(g10
S"'\xafne\x92\x8d\xf8?"
p441
tp442
Rp443
sg16
g23
ssI151
(dp444
g3
S'EURCAD'
p445
sg5
g6
(g10
S'\x99\x19j\x9e,|\xf8?'
p446
tp447
Rp448
sg16
g17
ssI153
(dp449
g3
S'EURCAD'
p450
sg5
g6
(g10
S'c\xb0\x06\xe0\x9e@\xf8?'
p451
tp452
Rp453
sg16
g17
ssI155
(dp454
g3
S'EURCAD'
p455
sg5
g6
(g10
S'\x15\xba\xfc\x9a\xde\xa8\xf8?'
p456
tp457
Rp458
sg16
g23
ssI156
(dp459
g3
S'EURCAD'
p460
sg5
g6
(g10
S'\x92\x9f\x80\xc60\xa4\xf8?'
p461
tp462
Rp463
sg16
g23
ssI538
(dp464
g3
S'EURCAD'
p465
sg5
g6
(g10
S'E\xff\xe1\xce\xd8\xf3\xf7?'
p466
tp467
Rp468
sg16
g17
ssI161
(dp469
g3
S'EURCAD'
p470
sg5
g6
(g10
S'q\xd6\xcb@\x8a\x90\xf8?'
p471
tp472
Rp473
sg16
g17
ssI539
(dp474
g3
S'EURCAD'
p475
sg5
g6
(g10
S'T^\xc9y\x10\r\xf8?'
p476
tp477
Rp478
sg16
g17
ssI166
(dp479
g3
S'EURCAD'
p480
sg5
g6
(g10
S'\x8c9\x0c6\x99\xd0\xf8?'
p481
tp482
Rp483
sg16
g23
ssI168
(dp484
g3
S'EURCAD'
p485
sg5
g6
(g10
S'I`\xc5\xe3g*\xf9?'
p486
tp487
Rp488
sg16
g17
ssI169
(dp489
g3
S'EURCAD'
p490
sg5
g6
(g10
S'\x8c\n\xb3\\\x04\x14\xf9?'
p491
tp492
Rp493
sg16
g17
ssI170
(dp494
g3
S'EURCAD'
p495
sg5
g6
(g10
S'I,\xa2hV!\xf9?'
p496
tp497
Rp498
sg16
g23
ssI171
(dp499
g3
S'EURCAD'
p500
sg5
g6
(g10
S'\x10\x8a\x7fp\xc48\xf9?'
p501
tp502
Rp503
sg16
g23
ssI172
(dp504
g3
S'EURCAD'
p505
sg5
g6
(g10
S'"xbll*\xf9?'
p506
tp507
Rp508
sg16
g17
ssI174
(dp509
g3
S'EURCAD'
p510
sg5
g6
(g10
S'#c\xd7U}\x0c\xf9?'
p511
tp512
Rp513
sg16
g17
ssI181
(dp514
g3
S'EURCAD'
p515
sg5
g6
(g10
S'X\x877\xb5/\x85\xf9?'
p516
tp517
Rp518
sg16
g17
ssI183
(dp519
g3
S'EURCAD'
p520
sg5
g6
(g10
S')\x08<\xff\x95|\xf9?'
p521
tp522
Rp523
sg16
g23
ssI185
(dp524
g3
S'EURCAD'
p525
sg5
g6
(g10
S'k9\xb5l{\xcf\xf9?'
p526
tp527
Rp528
sg16
g17
ssI186
(dp529
g3
S'EURCAD'
p530
sg5
g6
(g10
S'u\x1a\x18^\xd9\xf7\xf9?'
p531
tp532
Rp533
sg16
g23
ssI187
(dp534
g3
S'EURCAD'
p535
sg5
g6
(g10
S'\x1d#\xcc\x91\xb3\xc9\xf9?'
p536
tp537
Rp538
sg16
g17
ssI188
(dp539
g3
S'EURCAD'
p540
sg5
g6
(g10
S'\xe1\xf3\xb2\x15\xc9\xf2\xf9?'
p541
tp542
Rp543
sg16
g17
ssI189
(dp544
g3
S'EURCAD'
p545
sg5
g6
(g10
S'\xd4.<\x8e$\xea\xf9?'
p546
tp547
Rp548
sg16
g23
ssI190
(dp549
g3
S'EURCAD'
p550
sg5
g6
(g10
S'f\xfa\xa1\x86v\xdd\xf9?'
p551
tp552
Rp553
sg16
g17
ssI191
(dp554
g3
S'EURCAD'
p555
sg5
g6
(g10
S'\x9fi\x92X!\xf6\xf9?'
p556
tp557
Rp558
sg16
g23
ssI544
(dp559
g3
S'EURCAD'
p560
sg5
g6
(g10
S'\xd3B3\xd7\xb9s\xf8?'
p561
tp562
Rp563
sg16
g17
ssI195
(dp564
g3
S'EURCAD'
p565
sg5
g6
(g10
S'\x98\xcd;zE\xe3\xf9?'
p566
tp567
Rp568
sg16
g23
ssI197
(dp569
g3
S'EURCAD'
p570
sg5
g6
(g10
S'y\xc03\x91b\xe2\xf9?'
p571
tp572
Rp573
sg16
g23
ssI198
(dp574
g3
S'EURCAD'
p575
sg5
g6
(g10
S'\xcbuu\x94\xb6\xf0\xf9?'
p576
tp577
Rp578
sg16
g17
ssI201
(dp579
g3
S'EURCAD'
p580
sg5
g6
(g10
S'\xaf;\xe8A\xcb\xa2\xf9?'
p581
tp582
Rp583
sg16
g23
ssI204
(dp584
g3
S'EURCAD'
p585
sg5
g6
(g10
S',\xbc\x1e\x9f\n\xa4\xf9?'
p586
tp587
Rp588
sg16
g17
ssI205
(dp589
g3
S'EURCAD'
p590
sg5
g6
(g10
S'\xe29\xf1)\x0e\x97\xf9?'
p591
tp592
Rp593
sg16
g17
ssI207
(dp594
g3
S'EURCAD'
p595
sg5
g6
(g10
S'\x9c\xf2e\xd8\xe3\xbd\xf9?'
p596
tp597
Rp598
sg16
g17
ssI208
(dp599
g3
S'EURCAD'
p600
sg5
g6
(g10
S'\xb9\t\x91Y\x14\xef\xf9?'
p601
tp602
Rp603
sg16
g23
ssI213
(dp604
g3
S'EURCAD'
p605
sg5
g6
(g10
S'\xf9\xc1\xee\x9d__\xf9?'
p606
tp607
Rp608
sg16
g17
ssI214
(dp609
g3
S'EURCAD'
p610
sg5
g6
(g10
S'\x020X\xc0\x8a\x80\xf9?'
p611
tp612
Rp613
sg16
g17
ssI217
(dp614
g3
S'EURCAD'
p615
sg5
g6
(g10
S'\x17\x9a0\x9c\x85\xa5\xf9?'
p616
tp617
Rp618
sg16
g23
ssI218
(dp619
g3
S'EURCAD'
p620
sg5
g6
(g10
S'\x14\x83\xb8Q\x82\xa9\xf9?'
p621
tp622
Rp623
sg16
g23
ssI223
(dp624
g3
S'EURCAD'
p625
sg5
g6
(g10
S'\xfe\xe9\xff\r7#\xf9?'
p626
tp627
Rp628
sg16
g17
ssI226
(dp629
g3
S'EURCAD'
p630
sg5
g6
(g10
S'\x17\xc3\x0cL\xb7j\xf9?'
p631
tp632
Rp633
sg16
g17
ssI228
(dp634
g3
S'EURCAD'
p635
sg5
g6
(g10
S'|\xe3\x9b1HG\xf9?'
p636
tp637
Rp638
sg16
g23
ssI229
(dp639
g3
S'EURCAD'
p640
sg5
g6
(g10
S'\xe6\xb6\xb1z^\x11\xf9?'
p641
tp642
Rp643
sg16
g23
ssI231
(dp644
g3
S'EURCAD'
p645
sg5
g6
(g10
S'\xc9\xa5m\x06\xa1\x1d\xf9?'
p646
tp647
Rp648
sg16
g23
ssI234
(dp649
g3
S'EURCAD'
p650
sg5
g6
(g10
S'\x9d]\xf26\x84\xdb\xf8?'
p651
tp652
Rp653
sg16
g23
ssI235
(dp654
g3
S'EURCAD'
p655
sg5
g6
(g10
S'\xe3\xbd(#\x7f\xca\xf8?'
p656
tp657
Rp658
sg16
g23
ssI238
(dp659
g3
S'EURCAD'
p660
sg5
g6
(g10
S'\xf6\x7f\xf7\x9d}\x01\xf9?'
p661
tp662
Rp663
sg16
g23
ssI242
(dp664
g3
S'EURCAD'
p665
sg5
g6
(g10
S'\xee\x0c\x94L\xack\xf8?'
p666
tp667
Rp668
sg16
g23
ssI244
(dp669
g3
S'EURCAD'
p670
sg5
g6
(g10
S'n\x12\xe2\x9a\xc3\x06\xf8?'
p671
tp672
Rp673
sg16
g23
ssI247
(dp674
g3
S'EURCAD'
p675
sg5
g6
(g10
S'_\xd9J\x17\x1d\r\xf8?'
p676
tp677
Rp678
sg16
g23
ssI248
(dp679
g3
S'EURCAD'
p680
sg5
g6
(g10
S'\xe6w\xcd\xdd\xbc\xfc\xf7?'
p681
tp682
Rp683
sg16
g17
ssI251
(dp684
g3
S'EURCAD'
p685
sg5
g6
(g10
S'\xbfs\xb7\x03\x80\xea\xf7?'
p686
tp687
Rp688
sg16
g23
ssI254
(dp689
g3
S'EURCAD'
p690
sg5
g6
(g10
S'\xb3\xc5\xdb\x0b\x1c\xa9\xf7?'
p691
tp692
Rp693
sg16
g17
ssI257
(dp694
g3
S'EURCAD'
p695
sg5
g6
(g10
S'\x15Y\xfb\x80y\x95\xf7?'
p696
tp697
Rp698
sg16
g17
ssI259
(dp699
g3
S'EURCAD'
p700
sg5
g6
(g10
S'\x1fV#\ne\xcc\xf7?'
p701
tp702
Rp703
sg16
g23
ssI260
(dp704
g3
S'EURCAD'
p705
sg5
g6
(g10
S'\x865\xd7\xba3~\xf7?'
p706
tp707
Rp708
sg16
g17
ssI261
(dp709
g3
S'EURCAD'
p710
sg5
g6
(g10
S'\r\xbf\xc7\xdbL\xb6\xf7?'
p711
tp712
Rp713
sg16
g23
ssI262
(dp714
g3
S'EURCAD'
p715
sg5
g6
(g10
S'\x025\xcfvr\xc5\xf7?'
p716
tp717
Rp718
sg16
g17
ssI263
(dp719
g3
S'EURCAD'
p720
sg5
g6
(g10
S'Xy\x93\xde}\xba\xf7?'
p721
tp722
Rp723
sg16
g17
ssI266
(dp724
g3
S'EURCAD'
p725
sg5
g6
(g10
S'ujM~\xf4\xa7\xf7?'
p726
tp727
Rp728
sg16
g17
ssI268
(dp729
g3
S'EURCAD'
p730
sg5
g6
(g10
S'\xb06B\x1f\xf7)\xf8?'
p731
tp732
Rp733
sg16
g17
ssI269
(dp734
g3
S'EURCAD'
p735
sg5
g6
(g10
S'\xac\xad\x15g 7\xf8?'
p736
tp737
Rp738
sg16
g17
ssI270
(dp739
g3
S'EURCAD'
p740
sg5
g6
(g10
S'{8\tp\x90K\xf8?'
p741
tp742
Rp743
sg16
g17
ssI271
(dp744
g3
S'EURCAD'
p745
sg5
g6
(g10
S'\xe7\xb1\xea\xe1\xcfQ\xf8?'
p746
tp747
Rp748
sg16
g17
ssI272
(dp749
g3
S'EURCAD'
p750
sg5
g6
(g10
S'\xb4\x92\xdb\xbcli\xf8?'
p751
tp752
Rp753
sg16
g17
ssI274
(dp754
g3
S'EURCAD'
p755
sg5
g6
(g10
S'/\x03\x04\xe59d\xf8?'
p756
tp757
Rp758
sg16
g23
ssI558
(dp759
g3
S'EURCAD'
p760
sg5
g6
(g10
S'\x885\r\xfcy)\xf9?'
p761
tp762
Rp763
sg16
g23
ssI279
(dp764
g3
S'EURCAD'
p765
sg5
g6
(g10
S'T\xa6\x1e\xcf\xb7\x86\xf8?'
p766
tp767
Rp768
sg16
g17
ssI280
(dp769
g3
S'EURCAD'
p770
sg5
g6
(g10
S'\r\x07(,\xa0\xa6\xf8?'
p771
tp772
Rp773
sg16
g17
ssI281
(dp774
g3
S'EURCAD'
p775
sg5
g6
(g10
S'\xf1\xc9hF\r\x8c\xf8?'
p776
tp777
Rp778
sg16
g17
ssI283
(dp779
g3
S'EURCAD'
p780
sg5
g6
(g10
S'\xd6\xa9y{\x9d\xa3\xf8?'
p781
tp782
Rp783
sg16
g17
ssI284
(dp784
g3
S'EURCAD'
p785
sg5
g6
(g10
S'\x08\xb8\x8d\xf0\xc9\xae\xf8?'
p786
tp787
Rp788
sg16
g17
ssI285
(dp789
g3
S'EURCAD'
p790
sg5
g6
(g10
S'\xbd\x02+\x90\x18\xe3\xf8?'
p791
tp792
Rp793
sg16
g23
ssI287
(dp794
g3
S'EURCAD'
p795
sg5
g6
(g10
S'\x9f \xc5\xa5\xd9\xd5\xf8?'
p796
tp797
Rp798
sg16
g17
ssI288
(dp799
g3
S'EURCAD'
p800
sg5
g6
(g10
S'\xd5K\xb5\xfc\x06\xdd\xf8?'
p801
tp802
Rp803
sg16
g17
ssI289
(dp804
g3
S'EURCAD'
p805
sg5
g6
(g10
S'\xa9\xa0C\x7f,\t\xf9?'
p806
tp807
Rp808
sg16
g17
ssI290
(dp809
g3
S'EURCAD'
p810
sg5
g6
(g10
S'\x90\xc4ja\x10)\xf9?'
p811
tp812
Rp813
sg16
g17
ssI292
(dp814
g3
S'EURCAD'
p815
sg5
g6
(g10
S'\x93R)\xf6^d\xf9?'
p816
tp817
Rp818
sg16
g23
ssI295
(dp819
g3
S'EURCAD'
p820
sg5
g6
(g10
S'\xd1\xd1P\x8f61\xf9?'
p821
tp822
Rp823
sg16
g23
ssI296
(dp824
g3
S'EURCAD'
p825
sg5
g6
(g10
S'\x8f\x05\xefk\xa4%\xf9?'
p826
tp827
Rp828
sg16
g17
ssI298
(dp829
g3
S'EURCAD'
p830
sg5
g6
(g10
S'\x8e\xbb\x889\x82\x08\xf9?'
p831
tp832
Rp833
sg16
g17
ssI301
(dp834
g3
S'EURCAD'
p835
sg5
g6
(g10
S'\x88\xa6\xbc/\x8d>\xf9?'
p836
tp837
Rp838
sg16
g17
ssI304
(dp839
g3
S'EURCAD'
p840
sg5
g6
(g10
S'\x81\xb1H^\xbeG\xf9?'
p841
tp842
Rp843
sg16
g17
ssI305
(dp844
g3
S'EURCAD'
p845
sg5
g6
(g10
S'\xb0\x98\xfd}\xeah\xf9?'
p846
tp847
Rp848
sg16
g17
ssI306
(dp849
g3
S'EURCAD'
p850
sg5
g6
(g10
S'Bg\xb18A\x8f\xf9?'
p851
tp852
Rp853
sg16
g17
ssI563
(dp854
g3
S'EURCAD'
p855
sg5
g6
(g10
S'\xe2]\xb1\x07\xc0\xfa\xf8?'
p856
tp857
Rp858
sg16
g23
ssI309
(dp859
g3
S'EURCAD'
p860
sg5
g6
(g10
S'\xf8\xa4\x8b\xe7\xb9\x99\xf9?'
p861
tp862
Rp863
sg16
g17
ssI310
(dp864
g3
S'EURCAD'
p865
sg5
g6
(g10
S'\x9b\xac\x9f/x\xa5\xf9?'
p866
tp867
Rp868
sg16
g17
ssI312
(dp869
g3
S'EURCAD'
p870
sg5
g6
(g10
S'\x93\x0f\x88\xc6\xa6\xb1\xf9?'
p871
tp872
Rp873
sg16
g17
ssI564
(dp874
g3
S'EURCAD'
p875
sg5
g6
(g10
S'\xbf\xdf\xe5q@>\xf9?'
p876
tp877
Rp878
sg16
g17
ssI314
(dp879
g3
S'EURCAD'
p880
sg5
g6
(g10
S'\xec\x93[\xc8\xd8\xaf\xf9?'
p881
tp882
Rp883
sg16
g23
ssI315
(dp884
g3
S'EURCAD'
p885
sg5
g6
(g10
S'\x8d\xe7\xd1\x13z\xbd\xf9?'
p886
tp887
Rp888
sg16
g23
ssI316
(dp889
g3
S'EURCAD'
p890
sg5
g6
(g10
S'+W\xe2\xc7\x91\xbe\xf9?'
p891
tp892
Rp893
sg16
g23
ssI319
(dp894
g3
S'EURCAD'
p895
sg5
g6
(g10
S'\x83\xe1\xc1Rx\xa7\xf9?'
p896
tp897
Rp898
sg16
g17
ssI321
(dp899
g3
S'EURCAD'
p900
sg5
g6
(g10
S'2{\x8b\xf4={\xf9?'
p901
tp902
Rp903
sg16
g17
ssI323
(dp904
g3
S'EURCAD'
p905
sg5
g6
(g10
S'\x01EBQr\xc3\xf9?'
p906
tp907
Rp908
sg16
g23
ssI325
(dp909
g3
S'EURCAD'
p910
sg5
g6
(g10
S'\xfb\x9c\xe1\xda\x9c\xe2\xf9?'
p911
tp912
Rp913
sg16
g23
ssI326
(dp914
g3
S'EURCAD'
p915
sg5
g6
(g10
S'\xa9QIl_\xd7\xf9?'
p916
tp917
Rp918
sg16
g23
ssI329
(dp919
g3
S'EURCAD'
p920
sg5
g6
(g10
S'\xcd\x1f\x08\xca\xe7z\xf9?'
p921
tp922
Rp923
sg16
g23
ssI331
(dp924
g3
S'EURCAD'
p925
sg5
g6
(g10
S'\x17\x95\xc1\x08\xa0\x9e\xf9?'
p926
tp927
Rp928
sg16
g17
ssI332
(dp929
g3
S'EURCAD'
p930
sg5
g6
(g10
S'\x9a\xd8\xe0+\xed\xc3\xf9?'
p931
tp932
Rp933
sg16
g17
ssI334
(dp934
g3
S'EURCAD'
p935
sg5
g6
(g10
S'\x80\x05\xc2\x90\xae\xd6\xf9?'
p936
tp937
Rp938
sg16
g23
ssI336
(dp939
g3
S'EURCAD'
p940
sg5
g6
(g10
S'\x10\xd3N\xc2\xee\xc6\xf9?'
p941
tp942
Rp943
sg16
g17
ssI337
(dp944
g3
S'EURCAD'
p945
sg5
g6
(g10
S'\xf0\xe4\x88p\xb5\xcf\xf9?'
p946
tp947
Rp948
sg16
g17
ssI338
(dp949
g3
S'EURCAD'
p950
sg5
g6
(g10
S'{\xa0\x03\xa9\xa1\xe5\xf9?'
p951
tp952
Rp953
sg16
g17
ssI342
(dp954
g3
S'EURCAD'
p955
sg5
g6
(g10
S'\xf0\xa1-B\xf11\xfa?'
p956
tp957
Rp958
sg16
g17
ssI569
(dp959
g3
S'EURCAD'
p960
sg5
g6
(g10
S'\xf0\x1e\xfdF\xffJ\xf9?'
p961
tp962
Rp963
sg16
g17
ssI347
(dp964
g3
S'EURCAD'
p965
sg5
g6
(g10
S'ks\x94\xc3\xc8\x7f\xfa?'
p966
tp967
Rp968
sg16
g23
ssI557
(dp969
g3
S'EURCAD'
p970
sg5
g6
(g10
S'\t\xf35\xce%<\xf9?'
p971
tp972
Rp973
sg16
g17
ssI350
(dp974
g3
S'EURCAD'
p975
sg5
g6
(g10
S'\xf6\x90\x9d\xe3Hl\xfa?'
p976
tp977
Rp978
sg16
g17
ssI353
(dp979
g3
S'EURCAD'
p980
sg5
g6
(g10
S'-\x11oO$M\xfa?'
p981
tp982
Rp983
sg16
g17
ssI355
(dp984
g3
S'EURCAD'
p985
sg5
g6
(g10
S'\xd9\xa1\xab\xdf-S\xfa?'
p986
tp987
Rp988
sg16
g17
ssI356
(dp989
g3
S'EURCAD'
p990
sg5
g6
(g10
S'?&\xa2\xc8\xfa\x85\xfa?'
p991
tp992
Rp993
sg16
g23
ssI357
(dp994
g3
S'EURCAD'
p995
sg5
g6
(g10
S'\x05\n\x8d\xa0+\x80\xfa?'
p996
tp997
Rp998
sg16
g23
ssI358
(dp999
g3
S'EURCAD'
p1000
sg5
g6
(g10
S'}"\x10\xf2\xadw\xfa?'
p1001
tp1002
Rp1003
sg16
g23
ssI360
(dp1004
g3
S'EURCAD'
p1005
sg5
g6
(g10
S'[pz4+~\xfa?'
p1006
tp1007
Rp1008
sg16
g23
ssI362
(dp1009
g3
S'EURCAD'
p1010
sg5
g6
(g10
S'\xe0)s\xfd\xafU\xfa?'
p1011
tp1012
Rp1013
sg16
g17
ssI363
(dp1014
g3
S'EURCAD'
p1015
sg5
g6
(g10
S'\xfe\xee\xd6\xb7\xe1Q\xfa?'
p1016
tp1017
Rp1018
sg16
g23
ssI365
(dp1019
g3
S'EURCAD'
p1020
sg5
g6
(g10
S'Fy\xf4\xa8\xbf#\xfa?'
p1021
tp1022
Rp1023
sg16
g23
ssI367
(dp1024
g3
S'EURCAD'
p1025
sg5
g6
(g10
S'\xe8Z\xe0&c\xde\xf9?'
p1026
tp1027
Rp1028
sg16
g23
ssI368
(dp1029
g3
S'EURCAD'
p1030
sg5
g6
(g10
S'\xcc\xee8\x88\xf3\xd5\xf9?'
p1031
tp1032
Rp1033
sg16
g17
ssI370
(dp1034
g3
S'EURCAD'
p1035
sg5
g6
(g10
S'?\xfb6@h\xe7\xf9?'
p1036
tp1037
Rp1038
sg16
g23
ssI371
(dp1039
g3
S'EURCAD'
p1040
sg5
g6
(g10
S'^J\xb9\xa5\xe7\xf8\xf9?'
p1041
tp1042
Rp1043
sg16
g17
ssI372
(dp1044
g3
S'EURCAD'
p1045
sg5
g6
(g10
S'\x1ac\x14E\x1d\x0b\xfa?'
p1046
tp1047
Rp1048
sg16
g17
ssI373
(dp1049
g3
S'EURCAD'
p1050
sg5
g6
(g10
S'\xa1\xacV\x01\x1e!\xfa?'
p1051
tp1052
Rp1053
sg16
g17
ssI375
(dp1054
g3
S'EURCAD'
p1055
sg5
g6
(g10
S'\xb0\xf6\xd3\xd5\xa1\xd6\xf9?'
p1056
tp1057
Rp1058
sg16
g17
ssI377
(dp1059
g3
S'EURCAD'
p1060
sg5
g6
(g10
S'\x13\x84\xbd\xef7\x13\xfa?'
p1061
tp1062
Rp1063
sg16
g23
ssI378
(dp1064
g3
S'EURCAD'
p1065
sg5
g6
(g10
S'<\x12\xa3o\xb9*\xfa?'
p1066
tp1067
Rp1068
sg16
g17
ssI380
(dp1069
g3
S'EURCAD'
p1070
sg5
g6
(g10
S'y?\xaaM$\xfb\xf9?'
p1071
tp1072
Rp1073
sg16
g23
ssI381
(dp1074
g3
S'EURCAD'
p1075
sg5
g6
(g10
S'z\x12\xdbnr\t\xfa?'
p1076
tp1077
Rp1078
sg16
g23
ssI383
(dp1079
g3
S'EURCAD'
p1080
sg5
g6
(g10
S'YX0\x1a\xc4\xb2\xf9?'
p1081
tp1082
Rp1083
sg16
g23
ssI384
(dp1084
g3
S'EURCAD'
p1085
sg5
g6
(g10
S'\x16\xb8\xb4dc\xb9\xf9?'
p1086
tp1087
Rp1088
sg16
g17
ssI386
(dp1089
g3
S'EURCAD'
p1090
sg5
g6
(g10
S'\x8e\xd7\xd0\x02\x94\x81\xf9?'
p1091
tp1092
Rp1093
sg16
g17
ssI387
(dp1094
g3
S'EURCAD'
p1095
sg5
g6
(g10
S'b\xd1\xac\xec\xa5l\xf9?'
p1096
tp1097
Rp1098
sg16
g17
ssI392
(dp1099
g3
S'EURCAD'
p1100
sg5
g6
(g10
S'U\xcd!\x84~\x9a\xf9?'
p1101
tp1102
Rp1103
sg16
g23
ssI393
(dp1104
g3
S'EURCAD'
p1105
sg5
g6
(g10
S'\x9d\xe5\x9b\xca\xabz\xf9?'
p1106
tp1107
Rp1108
sg16
g23
ssI394
(dp1109
g3
S'EURCAD'
p1110
sg5
g6
(g10
S'|\xc3N\xbb\xbdA\xf9?'
p1111
tp1112
Rp1113
sg16
g23
ssI398
(dp1114
g3
S'EURCAD'
p1115
sg5
g6
(g10
S'C\xac\xe8\x1e\xbe\x14\xf9?'
p1116
tp1117
Rp1118
sg16
g17
ssI402
(dp1119
g3
S'EURCAD'
p1120
sg5
g6
(g10
S'\xf8\xf5?Tt\xef\xf8?'
p1121
tp1122
Rp1123
sg16
g23
ssI403
(dp1124
g3
S'EURCAD'
p1125
sg5
g6
(g10
S'\x15\x17m:n\xbd\xf8?'
p1126
tp1127
Rp1128
sg16
g17
ssI406
(dp1129
g3
S'EURCAD'
p1130
sg5
g6
(g10
S'\xe0\xaa\x9a\x14\x90u\xf8?'
p1131
tp1132
Rp1133
sg16
g17
ssI408
(dp1134
g3
S'EURCAD'
p1135
sg5
g6
(g10
S'\xfbT\xb2B\x12Z\xf8?'
p1136
tp1137
Rp1138
sg16
g17
ssI409
(dp1139
g3
S'EURCAD'
p1140
sg5
g6
(g10
S'\xdf2\xf6oz}\xf8?'
p1141
tp1142
Rp1143
sg16
g23
ssI542
(dp1144
g3
S'EURCAD'
p1145
sg5
g6
(g10
S'_\xccy\\|]\xf8?'
p1146
tp1147
Rp1148
sg16
g23
ssI411
(dp1149
g3
S'EURCAD'
p1150
sg5
g6
(g10
S'\x8f\x19\xc7\xb9z\x8f\xf8?'
p1151
tp1152
Rp1153
sg16
g23
ssI412
(dp1154
g3
S'EURCAD'
p1155
sg5
g6
(g10
S': \xa7\xc6\x01n\xf8?'
p1156
tp1157
Rp1158
sg16
g23
ssI413
(dp1159
g3
S'EURCAD'
p1160
sg5
g6
(g10
S'\xfew\xc3\xaf\x1d\x8c\xf8?'
p1161
tp1162
Rp1163
sg16
g17
ssI415
(dp1164
g3
S'EURCAD'
p1165
sg5
g6
(g10
S'\xd0\xacDvp\x86\xf8?'
p1166
tp1167
Rp1168
sg16
g17
ssI416
(dp1169
g3
S'EURCAD'
p1170
sg5
g6
(g10
S'K\x19\xf8\x83\xdf[\xf8?'
p1171
tp1172
Rp1173
sg16
g23
ssI561
(dp1174
g3
S'EURCAD'
p1175
sg5
g6
(g10
S'\xe6,\xb20\x87\xe8\xf8?'
p1176
tp1177
Rp1178
sg16
g17
ssI422
(dp1179
g3
S'EURCAD'
p1180
sg5
g6
(g10
S'\x84\x06\xaazR\x10\xf8?'
p1181
tp1182
Rp1183
sg16
g23
ssI424
(dp1184
g3
S'EURCAD'
p1185
sg5
g6
(g10
S'\x9a\xe8\x16\xecK#\xf8?'
p1186
tp1187
Rp1188
sg16
g23
ssI426
(dp1189
g3
S'EURCAD'
p1190
sg5
g6
(g10
S'\x16\xdc\xe3\xb8U\xf5\xf7?'
p1191
tp1192
Rp1193
sg16
g23
ssI427
(dp1194
g3
S'EURCAD'
p1195
sg5
g6
(g10
S'\xb9\xa07\xf0\xee\xcb\xf7?'
p1196
tp1197
Rp1198
sg16
g23
ssI432
(dp1199
g3
S'EURCAD'
p1200
sg5
g6
(g10
S'Wo\xc3\x93*\xd6\xf7?'
p1201
tp1202
Rp1203
sg16
g17
ssI433
(dp1204
g3
S'EURCAD'
p1205
sg5
g6
(g10
S'*\x03\xef\xda~\x01\xf8?'
p1206
tp1207
Rp1208
sg16
g23
ssI436
(dp1209
g3
S'EURCAD'
p1210
sg5
g6
(g10
S'\xb5D\x82\xe7s&\xf8?'
p1211
tp1212
Rp1213
sg16
g23
ssI437
(dp1214
g3
S'EURCAD'
p1215
sg5
g6
(g10
S'\x11z\x86\x16\xfc\xed\xf7?'
p1216
tp1217
Rp1218
sg16
g17
ssI438
(dp1219
g3
S'EURCAD'
p1220
sg5
g6
(g10
S'\xf4\x98\xf1\xbd\xe8\xda\xf7?'
p1221
tp1222
Rp1223
sg16
g17
ssI439
(dp1224
g3
S'EURCAD'
p1225
sg5
g6
(g10
S'\xfa\xd1\x10\x92\xf3\xd3\xf7?'
p1226
tp1227
Rp1228
sg16
g17
ssI440
(dp1229
g3
S'EURCAD'
p1230
sg5
g6
(g10
S'>\xb2P\xc5\xcd\xac\xf7?'
p1231
tp1232
Rp1233
sg16
g17
ssI441
(dp1234
g3
S'EURCAD'
p1235
sg5
g6
(g10
S'\xb3\x0c]\n\x8b\xbc\xf7?'
p1236
tp1237
Rp1238
sg16
g17
ssI443
(dp1239
g3
S'EURCAD'
p1240
sg5
g6
(g10
S'g\xe6$\x87[\xdf\xf7?'
p1241
tp1242
Rp1243
sg16
g17
ssI444
(dp1244
g3
S'EURCAD'
p1245
sg5
g6
(g10
S'\xe0\x05\x9b\x80M\xe8\xf7?'
p1246
tp1247
Rp1248
sg16
g23
ssI445
(dp1249
g3
S'EURCAD'
p1250
sg5
g6
(g10
S'\xcewN\xd3\x9a\xdf\xf7?'
p1251
tp1252
Rp1253
sg16
g23
ssI449
(dp1254
g3
S'EURCAD'
p1255
sg5
g6
(g10
S"\xa3\n'NN\xe5\xf7?"
p1256
tp1257
Rp1258
sg16
g23
ssI450
(dp1259
g3
S'EURCAD'
p1260
sg5
g6
(g10
S" lv'h\xd8\xf7?"
p1261
tp1262
Rp1263
sg16
g17
ssI452
(dp1264
g3
S'EURCAD'
p1265
sg5
g6
(g10
S'B\xc5 \xa7)\xf3\xf7?'
p1266
tp1267
Rp1268
sg16
g17
ssI453
(dp1269
g3
S'EURCAD'
p1270
sg5
g6
(g10
S'\xd4\x1c\x08T\x8e\x1c\xf8?'
p1271
tp1272
Rp1273
sg16
g17
ssI455
(dp1274
g3
S'EURCAD'
p1275
sg5
g6
(g10
S'\xc1\x83\xf8\xa0\xec\x12\xf8?'
p1276
tp1277
Rp1278
sg16
g17
ssI456
(dp1279
g3
S'EURCAD'
p1280
sg5
g6
(g10
S'\xfa\xae\x82w\x93%\xf8?'
p1281
tp1282
Rp1283
sg16
g23
ssI457
(dp1284
g3
S'EURCAD'
p1285
sg5
g6
(g10
S'\x8dmQ j&\xf8?'
p1286
tp1287
Rp1288
sg16
g17
ssI459
(dp1289
g3
S'EURCAD'
p1290
sg5
g6
(g10
S'\xf08\xed\xa1H!\xf8?'
p1291
tp1292
Rp1293
sg16
g17
ssI461
(dp1294
g3
S'EURCAD'
p1295
sg5
g6
(g10
S'\xf2\x17\xd8\x80\x8c3\xf8?'
p1296
tp1297
Rp1298
sg16
g17
ssI464
(dp1299
g3
S'EURCAD'
p1300
sg5
g6
(g10
S'\xf2\x07\x97r:,\xf8?'
p1301
tp1302
Rp1303
sg16
g17
ssI467
(dp1304
g3
S'EURCAD'
p1305
sg5
g6
(g10
S'\x056\xd7\x11j!\xf8?'
p1306
tp1307
Rp1308
sg16
g23
ssI469
(dp1309
g3
S'EURCAD'
p1310
sg5
g6
(g10
S'\xf3\x1a\x12#\x1fM\xf8?'
p1311
tp1312
Rp1313
sg16
g23
ssI473
(dp1314
g3
S'EURCAD'
p1315
sg5
g6
(g10
S'\x86\xd6\xae&`\xa8\xf7?'
p1316
tp1317
Rp1318
sg16
g23
ssI474
(dp1319
g3
S'EURCAD'
p1320
sg5
g6
(g10
S'H\xbd\xec\x07\xca\xcf\xf7?'
p1321
tp1322
Rp1323
sg16
g23
ssI476
(dp1324
g3
S'EURCAD'
p1325
sg5
g6
(g10
S'S6\x9e\xbe\x84\xcc\xf7?'
p1326
tp1327
Rp1328
sg16
g23
ssI477
(dp1329
g3
S'EURCAD'
p1330
sg5
g6
(g10
S'\x81\xbc\n_\xc9\xc0\xf7?'
p1331
tp1332
Rp1333
sg16
g17
ssI478
(dp1334
g3
S'EURCAD'
p1335
sg5
g6
(g10
S'|\xd7\x0f^5\x01\xf8?'
p1336
tp1337
Rp1338
sg16
g17
ssI479
(dp1339
g3
S'EURCAD'
p1340
sg5
g6
(g10
S'\xef\x1e\x91\x91a\xde\xf7?'
p1341
tp1342
Rp1343
sg16
g17
ssI546
(dp1344
g3
S'EURCAD'
p1345
sg5
g6
(g10
S'\xe8e!}\xc8\xb7\xf8?'
p1346
tp1347
Rp1348
sg16
g23
ssI486
(dp1349
g3
S'EURCAD'
p1350
sg5
g6
(g10
S'\xa1\x86\xcdM-\xb1\xf7?'
p1351
tp1352
Rp1353
sg16
g23
ssI487
(dp1354
g3
S'EURCAD'
p1355
sg5
g6
(g10
S'T:\xda\xa5i\xb7\xf7?'
p1356
tp1357
Rp1358
sg16
g23
ssI490
(dp1359
g3
S'EURCAD'
p1360
sg5
g6
(g10
S'\x13q\x91\x85Q\xd5\xf7?'
p1361
tp1362
Rp1363
sg16
g23
ssI492
(dp1364
g3
S'EURCAD'
p1365
sg5
g6
(g10
S'!\xa7\x815\xd6\xb1\xf7?'
p1366
tp1367
Rp1368
sg16
g17
ssI493
(dp1369
g3
S'EURCAD'
p1370
sg5
g6
(g10
S'\xad\xad\x81\xa1Z\xdc\xf7?'
p1371
tp1372
Rp1373
sg16
g17
ssI494
(dp1374
g3
S'EURCAD'
p1375
sg5
g6
(g10
S'\x8aF\xca\xc7S\xd0\xf7?'
p1376
tp1377
Rp1378
sg16
g23
ssI496
(dp1379
g3
S'EURCAD'
p1380
sg5
g6
(g10
S'e:\x13Ba\xbd\xf7?'
p1381
tp1382
Rp1383
sg16
g17
ssI499
(dp1384
g3
S'EURCAD'
p1385
sg5
g6
(g10
S'\x01-\xd8T2\xb3\xf7?'
p1386
tp1387
Rp1388
sg16
g17
ssI500
(dp1389
g3
S'EURCAD'
p1390
sg5
g6
(g10
S'\xfe\x91v\xfa\xe6\x9e\xf7?'
p1391
tp1392
Rp1393
sg16
g17
ssI503
(dp1394
g3
S'EURCAD'
p1395
sg5
g6
(g10
S'R\xa4b\xbeS\x03\xf8?'
p1396
tp1397
Rp1398
sg16
g23
ssI504
(dp1399
g3
S'EURCAD'
p1400
sg5
g6
(g10
S'4\x99T\xbc\xa8\x04\xf8?'
p1401
tp1402
Rp1403
sg16
g17
ssI507
(dp1404
g3
S'EURCAD'
p1405
sg5
g6
(g10
S'svq\x94\xa1\xe0\xf7?'
p1406
tp1407
Rp1408
sg16
g23
ssI508
(dp1409
g3
S'EURCAD'
p1410
sg5
g6
(g10
S'\xc7\xd6AeG\xf7\xf7?'
p1411
tp1412
Rp1413
sg16
g17
ssI509
(dp1414
g3
S'EURCAD'
p1415
sg5
g6
(g10
S'\xd3S\xa2\t4\xf5\xf7?'
p1416
tp1417
Rp1418
sg16
g17
ssI510
(dp1419
g3
S'EURCAD'
p1420
sg5
g6
(g10
S'\xf2C\x82U\x03\xfb\xf7?'
p1421
tp1422
Rp1423
sg16
g23
ssa(dp1424
I512
(dp1425
g3
S'EURJPY'
p1426
sg5
g6
(g10
S'>\xfdV\xbe$\xb2^@'
p1427
tp1428
Rp1429
sg16
g23
ssI513
(dp1430
g3
S'EURJPY'
p1431
sg5
g6
(g10
S'TR0W\xd6\xa1^@'
p1432
tp1433
Rp1434
sg16
g17
ssI3
(dp1435
g3
S'EURJPY'
p1436
sg5
g6
(g10
S'\xb8\xf2\xf7\xb7\xfe\xa1^@'
p1437
tp1438
Rp1439
sg16
g17
ssI517
(dp1440
g3
S'EURJPY'
p1441
sg5
g6
(g10
S'iu\rRol^@'
p1442
tp1443
Rp1444
sg16
g17
ssI518
(dp1445
g3
S'EURJPY'
p1446
sg5
g6
(g10
S'\xfc>D\xbd\x05\xb3^@'
p1447
tp1448
Rp1449
sg16
g17
ssI9
(dp1450
g3
S'EURJPY'
p1451
sg5
g6
(g10
S'\xbb\xc1\xdb\xec\x03{^@'
p1452
tp1453
Rp1454
sg16
g17
ssI522
(dp1455
g3
S'EURJPY'
p1456
sg5
g6
(g10
S'\xa8\xb9\x12\xa6\x0e\xaf^@'
p1457
tp1458
Rp1459
sg16
g23
ssI12
(dp1460
g3
S'EURJPY'
p1461
sg5
g6
(g10
S'\xe0\xad\xe8\xde\xb7;^@'
p1462
tp1463
Rp1464
sg16
g23
ssI16
(dp1465
g3
S'EURJPY'
p1466
sg5
g6
(g10
S'K=\xce\xc4\xa3\x07^@'
p1467
tp1468
Rp1469
sg16
g17
ssI18
(dp1470
g3
S'EURJPY'
p1471
sg5
g6
(g10
S'\xde\\\x9dXA\xf4]@'
p1472
tp1473
Rp1474
sg16
g23
ssI515
(dp1475
g3
S'EURJPY'
p1476
sg5
g6
(g10
S'\xc5\xd7(\xc8t\x99^@'
p1477
tp1478
Rp1479
sg16
g17
ssI532
(dp1480
g3
S'EURJPY'
p1481
sg5
g6
(g10
S'\xcfxv\xf4\xf5\xa0_@'
p1482
tp1483
Rp1484
sg16
g17
ssI21
(dp1485
g3
S'EURJPY'
p1486
sg5
g6
(g10
S'\x816u\xf7\x86\x01^@'
p1487
tp1488
Rp1489
sg16
g23
ssI534
(dp1490
g3
S'EURJPY'
p1491
sg5
g6
(g10
S'5\xbd\xc0\x9f/\xc8_@'
p1492
tp1493
Rp1494
sg16
g17
ssI23
(dp1495
g3
S'EURJPY'
p1496
sg5
g6
(g10
S'\x15\xb2\xba\x80 \xda]@'
p1497
tp1498
Rp1499
sg16
g23
ssI27
(dp1500
g3
S'EURJPY'
p1501
sg5
g6
(g10
S'\x8e\xc1Z\xf9N`]@'
p1502
tp1503
Rp1504
sg16
g17
ssI28
(dp1505
g3
S'EURJPY'
p1506
sg5
g6
(g10
S'k\xe5\x0b#\xe3)]@'
p1507
tp1508
Rp1509
sg16
g17
ssI541
(dp1510
g3
S'EURJPY'
p1511
sg5
g6
(g10
S'\xff\xfd&\xe5\xe0\xe0_@'
p1512
tp1513
Rp1514
sg16
g23
ssI30
(dp1515
g3
S'EURJPY'
p1516
sg5
g6
(g10
S'\xff\x94\xc9\xd4\x01\xfb\\@'
p1517
tp1518
Rp1519
sg16
g23
ssI31
(dp1520
g3
S'EURJPY'
p1521
sg5
g6
(g10
S'R\x9aQ\xb1\xb7\xfa\\@'
p1522
tp1523
Rp1524
sg16
g17
ssI32
(dp1525
g3
S'EURJPY'
p1526
sg5
g6
(g10
S'\xdc\xd3\xe8\xd9e\xee\\@'
p1527
tp1528
Rp1529
sg16
g17
ssI545
(dp1530
g3
S'EURJPY'
p1531
sg5
g6
(g10
S'O\xc4\xb4\xf4/\x8b_@'
p1532
tp1533
Rp1534
sg16
g23
ssI34
(dp1535
g3
S'EURJPY'
p1536
sg5
g6
(g10
S'v\xb6A\xb2A\x02]@'
p1537
tp1538
Rp1539
sg16
g23
ssI35
(dp1540
g3
S'EURJPY'
p1541
sg5
g6
(g10
S'\xc7-\x07\xac\x9b\xee\\@'
p1542
tp1543
Rp1544
sg16
g17
ssI36
(dp1545
g3
S'EURJPY'
p1546
sg5
g6
(g10
S'\xae\xd0>j`\x10]@'
p1547
tp1548
Rp1549
sg16
g17
ssI37
(dp1550
g3
S'EURJPY'
p1551
sg5
g6
(g10
S'+?Mw\xb7\x12]@'
p1552
tp1553
Rp1554
sg16
g17
ssI40
(dp1555
g3
S'EURJPY'
p1556
sg5
g6
(g10
S'\xbfb\xf1\x0ce\x12]@'
p1557
tp1558
Rp1559
sg16
g17
ssI41
(dp1560
g3
S'EURJPY'
p1561
sg5
g6
(g10
S'\xf6\x15\xbf\x13F@]@'
p1562
tp1563
Rp1564
sg16
g23
ssI42
(dp1565
g3
S'EURJPY'
p1566
sg5
g6
(g10
S'\xbb\xb0i\x1da\xf0\\@'
p1567
tp1568
Rp1569
sg16
g17
ssI555
(dp1570
g3
S'EURJPY'
p1571
sg5
g6
(g10
S'\x15\xd0\xf3&%\x00_@'
p1572
tp1573
Rp1574
sg16
g17
ssI45
(dp1575
g3
S'EURJPY'
p1576
sg5
g6
(g10
S'+\x86\x0b\x90\xad\xe3\\@'
p1577
tp1578
Rp1579
sg16
g17
ssI47
(dp1580
g3
S'EURJPY'
p1581
sg5
g6
(g10
S'\xfa\x10\x0c\x0cN\x88\\@'
p1582
tp1583
Rp1584
sg16
g23
ssI560
(dp1585
g3
S'EURJPY'
p1586
sg5
g6
(g10
S'\xf4,\x0b-\xbf`_@'
p1587
tp1588
Rp1589
sg16
g23
ssI49
(dp1590
g3
S'EURJPY'
p1591
sg5
g6
(g10
S'\x00\xdd\xe7\xa4Ke\\@'
p1592
tp1593
Rp1594
sg16
g17
ssI50
(dp1595
g3
S'EURJPY'
p1596
sg5
g6
(g10
S'hs6\xc1\xd7W\\@'
p1597
tp1598
Rp1599
sg16
g17
ssI51
(dp1600
g3
S'EURJPY'
p1601
sg5
g6
(g10
S'q\x1a\x804A\x80\\@'
p1602
tp1603
Rp1604
sg16
g17
ssI564
(dp1605
g3
S'EURJPY'
p1606
sg5
g6
(g10
S'bj-\x19j)_@'
p1607
tp1608
Rp1609
sg16
g17
ssI566
(dp1610
g3
S'EURJPY'
p1611
sg5
g6
(g10
S'\x87\xe7\x17\x15~\xef^@'
p1612
tp1613
Rp1614
sg16
g23
ssI521
(dp1615
g3
S'EURJPY'
p1616
sg5
g6
(g10
S'\x9c\xb7R\xc8M\x9b^@'
p1617
tp1618
Rp1619
sg16
g17
ssI56
(dp1620
g3
S'EURJPY'
p1621
sg5
g6
(g10
S'\xe6\xe9\xf0z<\xb6\\@'
p1622
tp1623
Rp1624
sg16
g17
ssI57
(dp1625
g3
S'EURJPY'
p1626
sg5
g6
(g10
S'\xa9\xfb\xd6\x15\xe0\x97\\@'
p1627
tp1628
Rp1629
sg16
g17
ssI58
(dp1630
g3
S'EURJPY'
p1631
sg5
g6
(g10
S'\xe7nW@\x96{\\@'
p1632
tp1633
Rp1634
sg16
g17
ssI59
(dp1635
g3
S'EURJPY'
p1636
sg5
g6
(g10
S'\x08\xdc\xd8!B\xbc\\@'
p1637
tp1638
Rp1639
sg16
g17
ssI60
(dp1640
g3
S'EURJPY'
p1641
sg5
g6
(g10
S'\xc6\x8e\x06E\x7f\xef\\@'
p1642
tp1643
Rp1644
sg16
g17
ssI61
(dp1645
g3
S'EURJPY'
p1646
sg5
g6
(g10
S'H<x\xe7z\xea\\@'
p1647
tp1648
Rp1649
sg16
g23
ssI63
(dp1650
g3
S'EURJPY'
p1651
sg5
g6
(g10
S'j\x84$\x7f6\xad\\@'
p1652
tp1653
Rp1654
sg16
g17
ssI66
(dp1655
g3
S'EURJPY'
p1656
sg5
g6
(g10
S'\xfa/J\xcf\xc0=\\@'
p1657
tp1658
Rp1659
sg16
g17
ssI70
(dp1660
g3
S'EURJPY'
p1661
sg5
g6
(g10
S'X\xfb\xb9\xe8\xad\x1b\\@'
p1662
tp1663
Rp1664
sg16
g17
ssI71
(dp1665
g3
S'EURJPY'
p1666
sg5
g6
(g10
S'\x0c\xd0\xc2\xd3\x00\x16\\@'
p1667
tp1668
Rp1669
sg16
g17
ssI72
(dp1670
g3
S'EURJPY'
p1671
sg5
g6
(g10
S'(\xffXvx\x19\\@'
p1672
tp1673
Rp1674
sg16
g23
ssI524
(dp1675
g3
S'EURJPY'
p1676
sg5
g6
(g10
S'>\x92\xef\x81\x05\xe4^@'
p1677
tp1678
Rp1679
sg16
g17
ssI74
(dp1680
g3
S'EURJPY'
p1681
sg5
g6
(g10
S'\xbf\x17\xbd=f\x1e\\@'
p1682
tp1683
Rp1684
sg16
g17
ssI76
(dp1685
g3
S'EURJPY'
p1686
sg5
g6
(g10
S'^\xb4\xd9\x9f\x18K\\@'
p1687
tp1688
Rp1689
sg16
g23
ssI80
(dp1690
g3
S'EURJPY'
p1691
sg5
g6
(g10
S'\x1b\xab,\xa6U\x8c\\@'
p1692
tp1693
Rp1694
sg16
g17
ssI84
(dp1695
g3
S'EURJPY'
p1696
sg5
g6
(g10
S'#)\x99.\x802\\@'
p1697
tp1698
Rp1699
sg16
g23
ssI85
(dp1700
g3
S'EURJPY'
p1701
sg5
g6
(g10
S'\\e\xfb\xe9\x1du\\@'
p1702
tp1703
Rp1704
sg16
g23
ssI87
(dp1705
g3
S'EURJPY'
p1706
sg5
g6
(g10
S",'\xd4:\xe7\xc1\\@"
p1707
tp1708
Rp1709
sg16
g23
ssI88
(dp1710
g3
S'EURJPY'
p1711
sg5
g6
(g10
S'\xbf\xc4\x1a@\xe2\x07]@'
p1712
tp1713
Rp1714
sg16
g17
ssI90
(dp1715
g3
S'EURJPY'
p1716
sg5
g6
(g10
S'\xce\xa9&\x17\xa9#]@'
p1717
tp1718
Rp1719
sg16
g17
ssI91
(dp1720
g3
S'EURJPY'
p1721
sg5
g6
(g10
S'Bu\xed,\xe9\x1e]@'
p1722
tp1723
Rp1724
sg16
g23
ssI93
(dp1725
g3
S'EURJPY'
p1726
sg5
g6
(g10
S'S \xc1\x07\xa7P]@'
p1727
tp1728
Rp1729
sg16
g23
ssI95
(dp1730
g3
S'EURJPY'
p1731
sg5
g6
(g10
S'n\xa6Q\xd6\x80Z]@'
p1732
tp1733
Rp1734
sg16
g23
ssI97
(dp1735
g3
S'EURJPY'
p1736
sg5
g6
(g10
S'\x1d\x04\x7f\xe8\xf1\xec\\@'
p1737
tp1738
Rp1739
sg16
g17
ssI99
(dp1740
g3
S'EURJPY'
p1741
sg5
g6
(g10
S'_%E\xf9\xff\xde\\@'
p1742
tp1743
Rp1744
sg16
g23
ssI104
(dp1745
g3
S'EURJPY'
p1746
sg5
g6
(g10
S'b\x0f+\xdb\xb1\x04]@'
p1747
tp1748
Rp1749
sg16
g17
ssI105
(dp1750
g3
S'EURJPY'
p1751
sg5
g6
(g10
S'5\xeeF/\xad\n]@'
p1752
tp1753
Rp1754
sg16
g17
ssI108
(dp1755
g3
S'EURJPY'
p1756
sg5
g6
(g10
S'\xe3\x8f_\x14L\x9f\\@'
p1757
tp1758
Rp1759
sg16
g17
ssI109
(dp1760
g3
S'EURJPY'
p1761
sg5
g6
(g10
S'\x98BK4\xb6\xd4\\@'
p1762
tp1763
Rp1764
sg16
g23
ssI115
(dp1765
g3
S'EURJPY'
p1766
sg5
g6
(g10
S'\xe1\x84G]\x8a[]@'
p1767
tp1768
Rp1769
sg16
g17
ssI118
(dp1770
g3
S'EURJPY'
p1771
sg5
g6
(g10
S'm\xea\x02\xe3\xdb3]@'
p1772
tp1773
Rp1774
sg16
g23
ssI121
(dp1775
g3
S'EURJPY'
p1776
sg5
g6
(g10
S'\xd4\x10\x06\xff\x11\x84]@'
p1777
tp1778
Rp1779
sg16
g23
ssI122
(dp1780
g3
S'EURJPY'
p1781
sg5
g6
(g10
S'=7\xed\xe8\xdb\xa5]@'
p1782
tp1783
Rp1784
sg16
g17
ssI128
(dp1785
g3
S'EURJPY'
p1786
sg5
g6
(g10
S'\xd8A\xea\xe1\xbb\xa7]@'
p1787
tp1788
Rp1789
sg16
g23
ssI130
(dp1790
g3
S'EURJPY'
p1791
sg5
g6
(g10
S'\xeb\x9f\x14\x86\x96\xab]@'
p1792
tp1793
Rp1794
sg16
g23
ssI132
(dp1795
g3
S'EURJPY'
p1796
sg5
g6
(g10
S'\xb6\xcb{\x999y]@'
p1797
tp1798
Rp1799
sg16
g23
ssI137
(dp1800
g3
S'EURJPY'
p1801
sg5
g6
(g10
S'\xae\x8c\x1d\x9e\xab\x82]@'
p1802
tp1803
Rp1804
sg16
g17
ssI535
(dp1805
g3
S'EURJPY'
p1806
sg5
g6
(g10
S'\x80\xdc\xe1\x16H\xca_@'
p1807
tp1808
Rp1809
sg16
g23
ssI141
(dp1810
g3
S'EURJPY'
p1811
sg5
g6
(g10
S'\xd4l\xa9\xcc2M]@'
p1812
tp1813
Rp1814
sg16
g23
ssI150
(dp1815
g3
S'EURJPY'
p1816
sg5
g6
(g10
S'\xf1\xf0a\x9ePl]@'
p1817
tp1818
Rp1819
sg16
g23
ssI152
(dp1820
g3
S'EURJPY'
p1821
sg5
g6
(g10
S'B\x9c\xe8NSr]@'
p1822
tp1823
Rp1824
sg16
g17
ssI543
(dp1825
g3
S'EURJPY'
p1826
sg5
g6
(g10
S'\x05\x88\xd8^y\xad_@'
p1827
tp1828
Rp1829
sg16
g17
ssI154
(dp1830
g3
S'EURJPY'
p1831
sg5
g6
(g10
S'[\xff\xe9\xa6@;]@'
p1832
tp1833
Rp1834
sg16
g23
ssI155
(dp1835
g3
S'EURJPY'
p1836
sg5
g6
(g10
S'\xceYM>|"]@'
p1837
tp1838
Rp1839
sg16
g23
ssI157
(dp1840
g3
S'EURJPY'
p1841
sg5
g6
(g10
S'4b\xf4\xf0m\x17]@'
p1842
tp1843
Rp1844
sg16
g23
ssI160
(dp1845
g3
S'EURJPY'
p1846
sg5
g6
(g10
S'B1#\xe4\xbe\xf1\\@'
p1847
tp1848
Rp1849
sg16
g23
ssI161
(dp1850
g3
S'EURJPY'
p1851
sg5
g6
(g10
S'\xe1\x9d\tZ\xe1?]@'
p1852
tp1853
Rp1854
sg16
g23
ssI162
(dp1855
g3
S'EURJPY'
p1856
sg5
g6
(g10
S'\xbeq2=\x96a]@'
p1857
tp1858
Rp1859
sg16
g17
ssI539
(dp1860
g3
S'EURJPY'
p1861
sg5
g6
(g10
S'\x0f\xfa\xc8\xa9\x86\xfd_@'
p1862
tp1863
Rp1864
sg16
g23
ssI164
(dp1865
g3
S'EURJPY'
p1866
sg5
g6
(g10
S'\xa6pf\xf5\xccv]@'
p1867
tp1868
Rp1869
sg16
g17
ssI165
(dp1870
g3
S'EURJPY'
p1871
sg5
g6
(g10
S'fs\x00\x0eFZ]@'
p1872
tp1873
Rp1874
sg16
g17
ssI169
(dp1875
g3
S'EURJPY'
p1876
sg5
g6
(g10
S'\xf3\xc9<7\xdd\x12]@'
p1877
tp1878
Rp1879
sg16
g23
ssI170
(dp1880
g3
S'EURJPY'
p1881
sg5
g6
(g10
S'\xde\xa7\xdc\x92\x0bN]@'
p1882
tp1883
Rp1884
sg16
g23
ssI171
(dp1885
g3
S'EURJPY'
p1886
sg5
g6
(g10
S'\x0b~\xd0\xa6\xbb\x89]@'
p1887
tp1888
Rp1889
sg16
g23
ssI174
(dp1890
g3
S'EURJPY'
p1891
sg5
g6
(g10
S'3\x9d\xcbV\r[]@'
p1892
tp1893
Rp1894
sg16
g23
ssI175
(dp1895
g3
S'EURJPY'
p1896
sg5
g6
(g10
S'\xdez\xefc\xabq]@'
p1897
tp1898
Rp1899
sg16
g23
ssI176
(dp1900
g3
S'EURJPY'
p1901
sg5
g6
(g10
S'\xae\x1c\xe4\x05\xb09]@'
p1902
tp1903
Rp1904
sg16
g17
ssI177
(dp1905
g3
S'EURJPY'
p1906
sg5
g6
(g10
S'\xe4\xfe\r\xf6\xe7*]@'
p1907
tp1908
Rp1909
sg16
g23
ssI180
(dp1910
g3
S'EURJPY'
p1911
sg5
g6
(g10
S'B0!P\xb1\xa0]@'
p1912
tp1913
Rp1914
sg16
g17
ssI181
(dp1915
g3
S'EURJPY'
p1916
sg5
g6
(g10
S'eJ\xfcZ\x9e\x88]@'
p1917
tp1918
Rp1919
sg16
g17
ssI182
(dp1920
g3
S'EURJPY'
p1921
sg5
g6
(g10
S'\xf9\xe9[`\x19\x91]@'
p1922
tp1923
Rp1924
sg16
g17
ssI183
(dp1925
g3
S'EURJPY'
p1926
sg5
g6
(g10
S'\x9b\x07\xd4\x8af6]@'
p1927
tp1928
Rp1929
sg16
g17
ssI187
(dp1930
g3
S'EURJPY'
p1931
sg5
g6
(g10
S'\xe2w\xa0\x9a\x8d\xd5\\@'
p1932
tp1933
Rp1934
sg16
g17
ssI188
(dp1935
g3
S'EURJPY'
p1936
sg5
g6
(g10
S':\x1f\xd5F\r\xfa\\@'
p1937
tp1938
Rp1939
sg16
g17
ssI189
(dp1940
g3
S'EURJPY'
p1941
sg5
g6
(g10
S'\xc0.\x1c\xa4\x04\x14]@'
p1942
tp1943
Rp1944
sg16
g23
ssI190
(dp1945
g3
S'EURJPY'
p1946
sg5
g6
(g10
S'\xba\x1a\xd9"~\x1f]@'
p1947
tp1948
Rp1949
sg16
g17
ssI191
(dp1950
g3
S'EURJPY'
p1951
sg5
g6
(g10
S'\x8a\xbc\xe7.\xdd\x0f]@'
p1952
tp1953
Rp1954
sg16
g23
ssI194
(dp1955
g3
S'EURJPY'
p1956
sg5
g6
(g10
S'"\x9f\xad\t\x17J]@'
p1957
tp1958
Rp1959
sg16
g17
ssI196
(dp1960
g3
S'EURJPY'
p1961
sg5
g6
(g10
S'\xa7F\xbfa$\x9c]@'
p1962
tp1963
Rp1964
sg16
g17
ssI197
(dp1965
g3
S'EURJPY'
p1966
sg5
g6
(g10
S'\x92u\xa0\xe7&\xbc]@'
p1967
tp1968
Rp1969
sg16
g23
ssI198
(dp1970
g3
S'EURJPY'
p1971
sg5
g6
(g10
S'\x84\x8eC\x04\x07\xed]@'
p1972
tp1973
Rp1974
sg16
g23
ssI199
(dp1975
g3
S'EURJPY'
p1976
sg5
g6
(g10
S'\x0b3t"\x1d?^@'
p1977
tp1978
Rp1979
sg16
g23
ssI201
(dp1980
g3
S'EURJPY'
p1981
sg5
g6
(g10
S'$\xb6S\xc5\x94u^@'
p1982
tp1983
Rp1984
sg16
g23
ssI202
(dp1985
g3
S'EURJPY'
p1986
sg5
g6
(g10
S'\x86\x16\xb96Y\x82^@'
p1987
tp1988
Rp1989
sg16
g23
ssI203
(dp1990
g3
S'EURJPY'
p1991
sg5
g6
(g10
S"P\n'$\x14\x81^@"
p1992
tp1993
Rp1994
sg16
g23
ssI205
(dp1995
g3
S'EURJPY'
p1996
sg5
g6
(g10
S'\x08A\x99\xbd\x97\x94^@'
p1997
tp1998
Rp1999
sg16
g23
ssI206
(dp2000
g3
S'EURJPY'
p2001
sg5
g6
(g10
S'f\x8fY\x8c\xd4t^@'
p2002
tp2003
Rp2004
sg16
g17
ssI207
(dp2005
g3
S'EURJPY'
p2006
sg5
g6
(g10
S'\n\x9f>M1\x90^@'
p2007
tp2008
Rp2009
sg16
g23
ssI208
(dp2010
g3
S'EURJPY'
p2011
sg5
g6
(g10
S'`F\xea\xfbm\xe5^@'
p2012
tp2013
Rp2014
sg16
g17
ssI211
(dp2015
g3
S'EURJPY'
p2016
sg5
g6
(g10
S'\x9e\to\xbb\x0f\xb2^@'
p2017
tp2018
Rp2019
sg16
g17
ssI212
(dp2020
g3
S'EURJPY'
p2021
sg5
g6
(g10
S'\x12\xd9\xb8M}\xee^@'
p2022
tp2023
Rp2024
sg16
g17
ssI213
(dp2025
g3
S'EURJPY'
p2026
sg5
g6
(g10
S'\x85\xa9\xbfu\x0f\xca^@'
p2027
tp2028
Rp2029
sg16
g23
ssI216
(dp2030
g3
S'EURJPY'
p2031
sg5
g6
(g10
S'\xac\x8c\xc9\xe0m\xb3^@'
p2032
tp2033
Rp2034
sg16
g23
ssI218
(dp2035
g3
S'EURJPY'
p2036
sg5
g6
(g10
S'\x9fgYk=\xb8^@'
p2037
tp2038
Rp2039
sg16
g23
ssI220
(dp2040
g3
S'EURJPY'
p2041
sg5
g6
(g10
S'Nd\x96\xe2O\xb0^@'
p2042
tp2043
Rp2044
sg16
g17
ssI549
(dp2045
g3
S'EURJPY'
p2046
sg5
g6
(g10
S'\xe7&\x88\xe8\x11s_@'
p2047
tp2048
Rp2049
sg16
g17
ssI224
(dp2050
g3
S'EURJPY'
p2051
sg5
g6
(g10
S'\xd2\x91\xe9\x86\x83\xde^@'
p2052
tp2053
Rp2054
sg16
g23
ssI225
(dp2055
g3
S'EURJPY'
p2056
sg5
g6
(g10
S'j\xf4l\xe7P\xae^@'
p2057
tp2058
Rp2059
sg16
g17
ssI226
(dp2060
g3
S'EURJPY'
p2061
sg5
g6
(g10
S'\x16E\x95\xfb\xe5\xba^@'
p2062
tp2063
Rp2064
sg16
g17
ssI227
(dp2065
g3
S'EURJPY'
p2066
sg5
g6
(g10
S'\xf2\xaa\x936\xcb\xae^@'
p2067
tp2068
Rp2069
sg16
g23
ssI229
(dp2070
g3
S'EURJPY'
p2071
sg5
g6
(g10
S'\xe5\xe8p\t`\xbc^@'
p2072
tp2073
Rp2074
sg16
g17
ssI230
(dp2075
g3
S'EURJPY'
p2076
sg5
g6
(g10
S'\xca\xb6`\xe9]\x8b^@'
p2077
tp2078
Rp2079
sg16
g17
ssI232
(dp2080
g3
S'EURJPY'
p2081
sg5
g6
(g10
S'\xe1\xff\x17\t\xd1\xbe^@'
p2082
tp2083
Rp2084
sg16
g17
ssI233
(dp2085
g3
S'EURJPY'
p2086
sg5
g6
(g10
S'\x8d\xafi\xe0\xc5\xd7^@'
p2087
tp2088
Rp2089
sg16
g23
ssI234
(dp2090
g3
S'EURJPY'
p2091
sg5
g6
(g10
S'\x8c@>q\x08\xca^@'
p2092
tp2093
Rp2094
sg16
g17
ssI235
(dp2095
g3
S'EURJPY'
p2096
sg5
g6
(g10
S'~/Fc\x9dE_@'
p2097
tp2098
Rp2099
sg16
g23
ssI239
(dp2100
g3
S'EURJPY'
p2101
sg5
g6
(g10
S'\xa1?\xc7\xab\x91A_@'
p2102
tp2103
Rp2104
sg16
g17
ssI552
(dp2105
g3
S'EURJPY'
p2106
sg5
g6
(g10
S'\xc0\xd5\xa3\xa7\x8bv_@'
p2107
tp2108
Rp2109
sg16
g17
ssI245
(dp2110
g3
S'EURJPY'
p2111
sg5
g6
(g10
S'.\x8f\xd4\xaf\xfa\xbd_@'
p2112
tp2113
Rp2114
sg16
g23
ssI246
(dp2115
g3
S'EURJPY'
p2116
sg5
g6
(g10
S'\x19\x86u\xacl\xac_@'
p2117
tp2118
Rp2119
sg16
g23
ssI247
(dp2120
g3
S'EURJPY'
p2121
sg5
g6
(g10
S'd\xe93Ix\x9d_@'
p2122
tp2123
Rp2124
sg16
g23
ssI251
(dp2125
g3
S'EURJPY'
p2126
sg5
g6
(g10
S'\x9ex\x85\x9c\xb5#_@'
p2127
tp2128
Rp2129
sg16
g23
ssI253
(dp2130
g3
S'EURJPY'
p2131
sg5
g6
(g10
S'\x9f!Y\xfat\xe6^@'
p2132
tp2133
Rp2134
sg16
g23
ssI254
(dp2135
g3
S'EURJPY'
p2136
sg5
g6
(g10
S'[<\xac\xc6\\\xea^@'
p2137
tp2138
Rp2139
sg16
g17
ssI255
(dp2140
g3
S'EURJPY'
p2141
sg5
g6
(g10
S'`\xaa\xff\x98F\xd7^@'
p2142
tp2143
Rp2144
sg16
g17
ssI260
(dp2145
g3
S'EURJPY'
p2146
sg5
g6
(g10
S'\t\xcb\xb0"R\t_@'
p2147
tp2148
Rp2149
sg16
g17
ssI265
(dp2150
g3
S'EURJPY'
p2151
sg5
g6
(g10
S'\xddN\x1e\xb6 \xf3^@'
p2152
tp2153
Rp2154
sg16
g17
ssI266
(dp2155
g3
S'EURJPY'
p2156
sg5
g6
(g10
S'\xcdB\xccM\xf3\xd4^@'
p2157
tp2158
Rp2159
sg16
g17
ssI267
(dp2160
g3
S'EURJPY'
p2161
sg5
g6
(g10
S'Ht\x8d\xef\xd8\xfc^@'
p2162
tp2163
Rp2164
sg16
g17
ssI268
(dp2165
g3
S'EURJPY'
p2166
sg5
g6
(g10
S'6Q\x1f\xbb\x99\x12_@'
p2167
tp2168
Rp2169
sg16
g17
ssI269
(dp2170
g3
S'EURJPY'
p2171
sg5
g6
(g10
S'7y\xbe\xfd\x10 _@'
p2172
tp2173
Rp2174
sg16
g17
ssI557
(dp2175
g3
S'EURJPY'
p2176
sg5
g6
(g10
S'k\xfeL\xc9;\xe7^@'
p2177
tp2178
Rp2179
sg16
g17
ssI272
(dp2180
g3
S'EURJPY'
p2181
sg5
g6
(g10
S'c\x9f\x7f\x99xJ_@'
p2182
tp2183
Rp2184
sg16
g23
ssI273
(dp2185
g3
S'EURJPY'
p2186
sg5
g6
(g10
S'\x13x\xc9\xa2\xbcV_@'
p2187
tp2188
Rp2189
sg16
g23
ssI275
(dp2190
g3
S'EURJPY'
p2191
sg5
g6
(g10
S'1R\x9f@\xed(_@'
p2192
tp2193
Rp2194
sg16
g17
ssI277
(dp2195
g3
S'EURJPY'
p2196
sg5
g6
(g10
S'\x86\xd6\xccXM]_@'
p2197
tp2198
Rp2199
sg16
g23
ssI278
(dp2200
g3
S'EURJPY'
p2201
sg5
g6
(g10
S'e\x82\x8f\xedHK_@'
p2202
tp2203
Rp2204
sg16
g23
ssI281
(dp2205
g3
S'EURJPY'
p2206
sg5
g6
(g10
S'\xb4\x0f\x94&\xf5-_@'
p2207
tp2208
Rp2209
sg16
g23
ssI282
(dp2210
g3
S'EURJPY'
p2211
sg5
g6
(g10
S'\xdd\xf5\xb6\x1am _@'
p2212
tp2213
Rp2214
sg16
g17
ssI284
(dp2215
g3
S'EURJPY'
p2216
sg5
g6
(g10
S'T#u\x86\xd5\xe2^@'
p2217
tp2218
Rp2219
sg16
g17
ssI286
(dp2220
g3
S'EURJPY'
p2221
sg5
g6
(g10
S'\xe8\x9fp\xdd\r\xc6^@'
p2222
tp2223
Rp2224
sg16
g23
ssI287
(dp2225
g3
S'EURJPY'
p2226
sg5
g6
(g10
S'\xe8\xb2o\x7fJ\xfa^@'
p2227
tp2228
Rp2229
sg16
g17
ssI291
(dp2230
g3
S'EURJPY'
p2231
sg5
g6
(g10
S'\x87\x8b\xbc\x06/\xe8^@'
p2232
tp2233
Rp2234
sg16
g17
ssI294
(dp2235
g3
S'EURJPY'
p2236
sg5
g6
(g10
S'\xb7\xe8K\xd3e\xaf^@'
p2237
tp2238
Rp2239
sg16
g23
ssI295
(dp2240
g3
S'EURJPY'
p2241
sg5
g6
(g10
S'\x1aJ\xe2\xf36\xa6^@'
p2242
tp2243
Rp2244
sg16
g23
ssI296
(dp2245
g3
S'EURJPY'
p2246
sg5
g6
(g10
S'9RrO)O^@'
p2247
tp2248
Rp2249
sg16
g17
ssI297
(dp2250
g3
S'EURJPY'
p2251
sg5
g6
(g10
S'\xc1\xe5\xed\x1d~S^@'
p2252
tp2253
Rp2254
sg16
g23
ssI561
(dp2255
g3
S'EURJPY'
p2256
sg5
g6
(g10
S'b\xf3\xaa\xbdr\\_@'
p2257
tp2258
Rp2259
sg16
g23
ssI299
(dp2260
g3
S'EURJPY'
p2261
sg5
g6
(g10
S'\xbd8\xb4\x7f\xb7(^@'
p2262
tp2263
Rp2264
sg16
g23
ssI302
(dp2265
g3
S'EURJPY'
p2266
sg5
g6
(g10
S'\xcc\x1a[$\x1b$^@'
p2267
tp2268
Rp2269
sg16
g23
ssI305
(dp2270
g3
S'EURJPY'
p2271
sg5
g6
(g10
S'\xac(<J\x0f\t^@'
p2272
tp2273
Rp2274
sg16
g23
ssI547
(dp2275
g3
S'EURJPY'
p2276
sg5
g6
(g10
S'\xaf\xc2\xed\xe19w_@'
p2277
tp2278
Rp2279
sg16
g17
ssI309
(dp2280
g3
S'EURJPY'
p2281
sg5
g6
(g10
S'\xf7\xd3\xb3\xa1\xf0\xb3]@'
p2282
tp2283
Rp2284
sg16
g23
ssI310
(dp2285
g3
S'EURJPY'
p2286
sg5
g6
(g10
S'\xffc#p\xbeu]@'
p2287
tp2288
Rp2289
sg16
g23
ssI312
(dp2290
g3
S'EURJPY'
p2291
sg5
g6
(g10
S'\x85\xd5z]\xb9z]@'
p2292
tp2293
Rp2294
sg16
g23
ssI313
(dp2295
g3
S'EURJPY'
p2296
sg5
g6
(g10
S'\xa9ze\xa2\xd4j]@'
p2297
tp2298
Rp2299
sg16
g23
ssI314
(dp2300
g3
S'EURJPY'
p2301
sg5
g6
(g10
S'\x88ki\xcc\x93p]@'
p2302
tp2303
Rp2304
sg16
g23
ssI315
(dp2305
g3
S'EURJPY'
p2306
sg5
g6
(g10
S'\x11\xb3\x06\x99\xfe\x8b]@'
p2307
tp2308
Rp2309
sg16
g23
ssI318
(dp2310
g3
S'EURJPY'
p2311
sg5
g6
(g10
S'\x85e\xa7\xdd\x8b~]@'
p2312
tp2313
Rp2314
sg16
g17
ssI320
(dp2315
g3
S'EURJPY'
p2316
sg5
g6
(g10
S'\x93\xa0&\x04\xde\xc6]@'
p2317
tp2318
Rp2319
sg16
g23
ssI321
(dp2320
g3
S'EURJPY'
p2321
sg5
g6
(g10
S'\xf1\x00\xd3\x1c\x05\x11^@'
p2322
tp2323
Rp2324
sg16
g17
ssI322
(dp2325
g3
S'EURJPY'
p2326
sg5
g6
(g10
S'\x98G\x9f\xf2?\xe5]@'
p2327
tp2328
Rp2329
sg16
g17
ssI324
(dp2330
g3
S'EURJPY'
p2331
sg5
g6
(g10
S'E\x96\xe1E%\x01^@'
p2332
tp2333
Rp2334
sg16
g23
ssI325
(dp2335
g3
S'EURJPY'
p2336
sg5
g6
(g10
S'\xca\xc6=B\xef\x0b^@'
p2337
tp2338
Rp2339
sg16
g23
ssI326
(dp2340
g3
S'EURJPY'
p2341
sg5
g6
(g10
S'\xa8\x98\xab\xf2\x11\x19^@'
p2342
tp2343
Rp2344
sg16
g17
ssI328
(dp2345
g3
S'EURJPY'
p2346
sg5
g6
(g10
S'luh\x9eYS^@'
p2347
tp2348
Rp2349
sg16
g17
ssI330
(dp2350
g3
S'EURJPY'
p2351
sg5
g6
(g10
S'Vg\xcd\n2\x14^@'
p2352
tp2353
Rp2354
sg16
g23
ssI331
(dp2355
g3
S'EURJPY'
p2356
sg5
g6
(g10
S'of\xa3,\xf6\xf6]@'
p2357
tp2358
Rp2359
sg16
g17
ssI332
(dp2360
g3
S'EURJPY'
p2361
sg5
g6
(g10
S'eG\x8e\x1e\xc2\xf0]@'
p2362
tp2363
Rp2364
sg16
g17
ssI333
(dp2365
g3
S'EURJPY'
p2366
sg5
g6
(g10
S'\xde":\xfa{\xca]@'
p2367
tp2368
Rp2369
sg16
g17
ssI335
(dp2370
g3
S'EURJPY'
p2371
sg5
g6
(g10
S'\x9e\xb9\xe0\xc0\xf3\xcc]@'
p2372
tp2373
Rp2374
sg16
g23
ssI341
(dp2375
g3
S'EURJPY'
p2376
sg5
g6
(g10
S'q\x88\x04\x84\xc4\x91]@'
p2377
tp2378
Rp2379
sg16
g17
ssI344
(dp2380
g3
S'EURJPY'
p2381
sg5
g6
(g10
S'\xf3?\xc7\xb0\x02\xa9]@'
p2382
tp2383
Rp2384
sg16
g17
ssI346
(dp2385
g3
S'EURJPY'
p2386
sg5
g6
(g10
S'\xd3B\xa6\xdc\xaa\xb5]@'
p2387
tp2388
Rp2389
sg16
g23
ssI347
(dp2390
g3
S'EURJPY'
p2391
sg5
g6
(g10
S'|\x921\x83a\xe8]@'
p2392
tp2393
Rp2394
sg16
g17
ssI349
(dp2395
g3
S'EURJPY'
p2396
sg5
g6
(g10
S'R\t\xa6.\xe4\x04^@'
p2397
tp2398
Rp2399
sg16
g17
ssI351
(dp2400
g3
S'EURJPY'
p2401
sg5
g6
(g10
S'\x1e\x9b\xf1\xba\xb0=^@'
p2402
tp2403
Rp2404
sg16
g23
ssI352
(dp2405
g3
S'EURJPY'
p2406
sg5
g6
(g10
S'\xf4\xc4\xc5\xa6$9^@'
p2407
tp2408
Rp2409
sg16
g17
ssI353
(dp2410
g3
S'EURJPY'
p2411
sg5
g6
(g10
S'\xc1\x86\xa9\xb90W^@'
p2412
tp2413
Rp2414
sg16
g23
ssI354
(dp2415
g3
S'EURJPY'
p2416
sg5
g6
(g10
S'\xb5\xab\xf2\x84@C^@'
p2417
tp2418
Rp2419
sg16
g23
ssI355
(dp2420
g3
S'EURJPY'
p2421
sg5
g6
(g10
S'\x03\xdf\x9c4N(^@'
p2422
tp2423
Rp2424
sg16
g17
ssI356
(dp2425
g3
S'EURJPY'
p2426
sg5
g6
(g10
S'\x8e\x16\xe4!\x08N^@'
p2427
tp2428
Rp2429
sg16
g17
ssI357
(dp2430
g3
S'EURJPY'
p2431
sg5
g6
(g10
S'I\x00\x14\xcfP%^@'
p2432
tp2433
Rp2434
sg16
g17
ssI359
(dp2435
g3
S'EURJPY'
p2436
sg5
g6
(g10
S'\xbbV\x83(\xbdM^@'
p2437
tp2438
Rp2439
sg16
g23
ssI360
(dp2440
g3
S'EURJPY'
p2441
sg5
g6
(g10
S'\xe9\x11\x92\tSR^@'
p2442
tp2443
Rp2444
sg16
g23
ssI362
(dp2445
g3
S'EURJPY'
p2446
sg5
g6
(g10
S'\xabm2\x01\xbd|^@'
p2447
tp2448
Rp2449
sg16
g17
ssI363
(dp2450
g3
S'EURJPY'
p2451
sg5
g6
(g10
S'\xfd)\x15\x9b\xc9\xc6^@'
p2452
tp2453
Rp2454
sg16
g23
ssI365
(dp2455
g3
S'EURJPY'
p2456
sg5
g6
(g10
S'\xa5\x03\x93\x1c5\x9f^@'
p2457
tp2458
Rp2459
sg16
g23
ssI366
(dp2460
g3
S'EURJPY'
p2461
sg5
g6
(g10
S'\x8e\xc8P\xc5J\xa7^@'
p2462
tp2463
Rp2464
sg16
g23
ssI367
(dp2465
g3
S'EURJPY'
p2466
sg5
g6
(g10
S'\xda\xd1\xac\x9e[\x97^@'
p2467
tp2468
Rp2469
sg16
g23
ssI368
(dp2470
g3
S'EURJPY'
p2471
sg5
g6
(g10
S'\x18\xca\x86Rt\xd2^@'
p2472
tp2473
Rp2474
sg16
g23
ssI369
(dp2475
g3
S'EURJPY'
p2476
sg5
g6
(g10
S'[\xaeKa\xd7\xd9^@'
p2477
tp2478
Rp2479
sg16
g23
ssI370
(dp2480
g3
S'EURJPY'
p2481
sg5
g6
(g10
S'\xdd\x9cO\x03\xf9\r_@'
p2482
tp2483
Rp2484
sg16
g17
ssI373
(dp2485
g3
S'EURJPY'
p2486
sg5
g6
(g10
S'\x89\t\x81\xc6\x03<_@'
p2487
tp2488
Rp2489
sg16
g17
ssI375
(dp2490
g3
S'EURJPY'
p2491
sg5
g6
(g10
S'\x9a\xd44\xb2\xb2B_@'
p2492
tp2493
Rp2494
sg16
g23
ssI379
(dp2495
g3
S'EURJPY'
p2496
sg5
g6
(g10
S'\xd9\x89\xff)o\x9b_@'
p2497
tp2498
Rp2499
sg16
g17
ssI380
(dp2500
g3
S'EURJPY'
p2501
sg5
g6
(g10
S'\xcd\xdcS\xd4\xa8Z_@'
p2502
tp2503
Rp2504
sg16
g23
ssI382
(dp2505
g3
S'EURJPY'
p2506
sg5
g6
(g10
S'\x1a\xa7A\x8a\xd5\xa7_@'
p2507
tp2508
Rp2509
sg16
g23
ssI383
(dp2510
g3
S'EURJPY'
p2511
sg5
g6
(g10
S'\xf47\xeb\x12!\xa9_@'
p2512
tp2513
Rp2514
sg16
g23
ssI385
(dp2515
g3
S'EURJPY'
p2516
sg5
g6
(g10
S'\xd5,\x1f\x0e\x1c\x04`@'
p2517
tp2518
Rp2519
sg16
g17
ssI387
(dp2520
g3
S'EURJPY'
p2521
sg5
g6
(g10
S'\xa4\xe5*\xc6[\xcf_@'
p2522
tp2523
Rp2524
sg16
g17
ssI390
(dp2525
g3
S'EURJPY'
p2526
sg5
g6
(g10
S'\xb9m8\xf4\xf1\x02`@'
p2527
tp2528
Rp2529
sg16
g17
ssI391
(dp2530
g3
S'EURJPY'
p2531
sg5
g6
(g10
S'\xab\x1d\x82?\xab\xf6_@'
p2532
tp2533
Rp2534
sg16
g23
ssI392
(dp2535
g3
S'EURJPY'
p2536
sg5
g6
(g10
S'\x7f\xe0\x83\x8b\xea\xfc_@'
p2537
tp2538
Rp2539
sg16
g17
ssI396
(dp2540
g3
S'EURJPY'
p2541
sg5
g6
(g10
S'\xceRY\xa0k\x01`@'
p2542
tp2543
Rp2544
sg16
g17
ssI397
(dp2545
g3
S'EURJPY'
p2546
sg5
g6
(g10
S'\x9e<=Cv\x13`@'
p2547
tp2548
Rp2549
sg16
g17
ssI398
(dp2550
g3
S'EURJPY'
p2551
sg5
g6
(g10
S'\xbd\xac\x83\xbab\x0f`@'
p2552
tp2553
Rp2554
sg16
g23
ssI400
(dp2555
g3
S'EURJPY'
p2556
sg5
g6
(g10
S'\xea`\x1ei\xd7\t`@'
p2557
tp2558
Rp2559
sg16
g17
ssI401
(dp2560
g3
S'EURJPY'
p2561
sg5
g6
(g10
S'[C\x1eV\xb6\xe2_@'
p2562
tp2563
Rp2564
sg16
g23
ssI403
(dp2565
g3
S'EURJPY'
p2566
sg5
g6
(g10
S'\xe0hHg\xae\xef_@'
p2567
tp2568
Rp2569
sg16
g23
ssI405
(dp2570
g3
S'EURJPY'
p2571
sg5
g6
(g10
S'\x9f\xb6!\xfd}#`@'
p2572
tp2573
Rp2574
sg16
g23
ssI407
(dp2575
g3
S'EURJPY'
p2576
sg5
g6
(g10
S'\x85{\xbd\xb8)?`@'
p2577
tp2578
Rp2579
sg16
g17
ssI408
(dp2580
g3
S'EURJPY'
p2581
sg5
g6
(g10
S'\x97\xe8j\xa5\x07*`@'
p2582
tp2583
Rp2584
sg16
g17
ssI409
(dp2585
g3
S'EURJPY'
p2586
sg5
g6
(g10
S'\xbd\xcbq\x02~\x17`@'
p2587
tp2588
Rp2589
sg16
g23
ssI412
(dp2590
g3
S'EURJPY'
p2591
sg5
g6
(g10
S'\xd6\x89\x17\x9e\x97\x12`@'
p2592
tp2593
Rp2594
sg16
g23
ssI414
(dp2595
g3
S'EURJPY'
p2596
sg5
g6
(g10
S'\xf2\x92vB\x8c#`@'
p2597
tp2598
Rp2599
sg16
g17
ssI416
(dp2600
g3
S'EURJPY'
p2601
sg5
g6
(g10
S'\x96\xe1y\x84\xb1*`@'
p2602
tp2603
Rp2604
sg16
g23
ssI423
(dp2605
g3
S'EURJPY'
p2606
sg5
g6
(g10
S'\xbcs{\x8bo `@'
p2607
tp2608
Rp2609
sg16
g23
ssI424
(dp2610
g3
S'EURJPY'
p2611
sg5
g6
(g10
S'\xa4`r\x96 7`@'
p2612
tp2613
Rp2614
sg16
g23
ssI425
(dp2615
g3
S'EURJPY'
p2616
sg5
g6
(g10
S'\xe0\xdejK\x81.`@'
p2617
tp2618
Rp2619
sg16
g17
ssI427
(dp2620
g3
S'EURJPY'
p2621
sg5
g6
(g10
S'4\x87D7X;`@'
p2622
tp2623
Rp2624
sg16
g23
ssI428
(dp2625
g3
S'EURJPY'
p2626
sg5
g6
(g10
S'\xd9!\x13_\x06\x17`@'
p2627
tp2628
Rp2629
sg16
g23
ssI429
(dp2630
g3
S'EURJPY'
p2631
sg5
g6
(g10
S'[\xe9\x88\x12^\x15`@'
p2632
tp2633
Rp2634
sg16
g17
ssI432
(dp2635
g3
S'EURJPY'
p2636
sg5
g6
(g10
S'\x93]J\xceU\x1f`@'
p2637
tp2638
Rp2639
sg16
g17
ssI553
(dp2640
g3
S'EURJPY'
p2641
sg5
g6
(g10
S'w\xc8\x10\x90\x0e\x15_@'
p2642
tp2643
Rp2644
sg16
g23
ssI434
(dp2645
g3
S'EURJPY'
p2646
sg5
g6
(g10
S'h\xc0\xb1l\x19\x17`@'
p2647
tp2648
Rp2649
sg16
g17
ssI435
(dp2650
g3
S'EURJPY'
p2651
sg5
g6
(g10
S'\xb5\xc1\x05\xcd\t\x12`@'
p2652
tp2653
Rp2654
sg16
g17
ssI440
(dp2655
g3
S'EURJPY'
p2656
sg5
g6
(g10
S'\x0f5\x111$\x1e`@'
p2657
tp2658
Rp2659
sg16
g17
ssI443
(dp2660
g3
S'EURJPY'
p2661
sg5
g6
(g10
S'\xc6\x87\xc9\x00\xf7\xe5_@'
p2662
tp2663
Rp2664
sg16
g17
ssI448
(dp2665
g3
S'EURJPY'
p2666
sg5
g6
(g10
S'\x85\xb1%\x01Y\xf5_@'
p2667
tp2668
Rp2669
sg16
g23
ssI451
(dp2670
g3
S'EURJPY'
p2671
sg5
g6
(g10
S'\xc2\x0c\xf6nzv_@'
p2672
tp2673
Rp2674
sg16
g17
ssI456
(dp2675
g3
S'EURJPY'
p2676
sg5
g6
(g10
S'\xab\xf9\x18\xa0j@_@'
p2677
tp2678
Rp2679
sg16
g17
ssI457
(dp2680
g3
S'EURJPY'
p2681
sg5
g6
(g10
S'\x91\xa4\xf5ZL\xd8_@'
p2682
tp2683
Rp2684
sg16
g23
ssI458
(dp2685
g3
S'EURJPY'
p2686
sg5
g6
(g10
S'\xbf\xd1\xa2\xcf\x82\xf8_@'
p2687
tp2688
Rp2689
sg16
g23
ssI461
(dp2690
g3
S'EURJPY'
p2691
sg5
g6
(g10
S'&@\x86\x19\x82\r`@'
p2692
tp2693
Rp2694
sg16
g17
ssI462
(dp2695
g3
S'EURJPY'
p2696
sg5
g6
(g10
S'E\xa7`pm\xee_@'
p2697
tp2698
Rp2699
sg16
g23
ssI464
(dp2700
g3
S'EURJPY'
p2701
sg5
g6
(g10
S'\x9f\xebp\xc4~\xe8_@'
p2702
tp2703
Rp2704
sg16
g17
ssI468
(dp2705
g3
S'EURJPY'
p2706
sg5
g6
(g10
S';\x06\xf4\x0c\x81\xfe_@'
p2707
tp2708
Rp2709
sg16
g23
ssI469
(dp2710
g3
S'EURJPY'
p2711
sg5
g6
(g10
S'\x15\x04:f4\xfc_@'
p2712
tp2713
Rp2714
sg16
g17
ssI474
(dp2715
g3
S'EURJPY'
p2716
sg5
g6
(g10
S'JJa\x18\x04a`@'
p2717
tp2718
Rp2719
sg16
g23
ssI475
(dp2720
g3
S'EURJPY'
p2721
sg5
g6
(g10
S'\xb8\x18\x1f\xeb\x95k`@'
p2722
tp2723
Rp2724
sg16
g17
ssI476
(dp2725
g3
S'EURJPY'
p2726
sg5
g6
(g10
S'\xe3\x9b&\xd2^]`@'
p2727
tp2728
Rp2729
sg16
g17
ssI478
(dp2730
g3
S'EURJPY'
p2731
sg5
g6
(g10
S'\x14!\xe8B\xc3Y`@'
p2732
tp2733
Rp2734
sg16
g17
ssI483
(dp2735
g3
S'EURJPY'
p2736
sg5
g6
(g10
S'\x9bt1\xb4\x1f,`@'
p2737
tp2738
Rp2739
sg16
g23
ssI486
(dp2740
g3
S'EURJPY'
p2741
sg5
g6
(g10
S'fd\xecH\x90$`@'
p2742
tp2743
Rp2744
sg16
g23
ssI488
(dp2745
g3
S'EURJPY'
p2746
sg5
g6
(g10
S'\x99\x9b\x1aC\t\xf3_@'
p2747
tp2748
Rp2749
sg16
g17
ssI491
(dp2750
g3
S'EURJPY'
p2751
sg5
g6
(g10
S'\xcc\xb4K/\xce\xd6_@'
p2752
tp2753
Rp2754
sg16
g23
ssI493
(dp2755
g3
S'EURJPY'
p2756
sg5
g6
(g10
S'\x17\xe9n\x90\xf2\x02`@'
p2757
tp2758
Rp2759
sg16
g17
ssI495
(dp2760
g3
S'EURJPY'
p2761
sg5
g6
(g10
S'a\xa7\xb5-s\xa0_@'
p2762
tp2763
Rp2764
sg16
g23
ssI496
(dp2765
g3
S'EURJPY'
p2766
sg5
g6
(g10
S'\xf4I\x12\xb8ji_@'
p2767
tp2768
Rp2769
sg16
g17
ssI497
(dp2770
g3
S'EURJPY'
p2771
sg5
g6
(g10
S'xXc-\xc9\x9d_@'
p2772
tp2773
Rp2774
sg16
g23
ssI498
(dp2775
g3
S'EURJPY'
p2776
sg5
g6
(g10
S'\xd0\xf5\xa723S_@'
p2777
tp2778
Rp2779
sg16
g23
ssI499
(dp2780
g3
S'EURJPY'
p2781
sg5
g6
(g10
S'Ak\xd4\x8e\x9b\x00_@'
p2782
tp2783
Rp2784
sg16
g23
ssI500
(dp2785
g3
S'EURJPY'
p2786
sg5
g6
(g10
S'\x8b@\x96\x06\xb9(_@'
p2787
tp2788
Rp2789
sg16
g23
ssI503
(dp2790
g3
S'EURJPY'
p2791
sg5
g6
(g10
S'\x14\xeaK\xb8F\x11_@'
p2792
tp2793
Rp2794
sg16
g17
ssI508
(dp2795
g3
S'EURJPY'
p2796
sg5
g6
(g10
S'\xc6~0\xe0\xf6\xf4^@'
p2797
tp2798
Rp2799
sg16
g23
ssI510
(dp2800
g3
S'EURJPY'
p2801
sg5
g6
(g10
S'\x9c\xbeE\xf2\xc9\xba^@'
p2802
tp2803
Rp2804
sg16
g23
ssI511
(dp2805
g3
S'EURJPY'
p2806
sg5
g6
(g10
S'\xa9A\xf7\xb4\x10\xab^@'
p2807
tp2808
Rp2809
sg16
g17
ssa(dp2810
I2
(dp2811
g3
S'EURCHF'
p2812
sg5
g6
(g10
S'\x04J\x12\x85\x011\xf1?'
p2813
tp2814
Rp2815
sg16
g23
ssI3
(dp2816
g3
S'EURCHF'
p2817
sg5
g6
(g10
S'4\xd1=\x08\xb0\x15\xf1?'
p2818
tp2819
Rp2820
sg16
g17
ssI516
(dp2821
g3
S'EURCHF'
p2822
sg5
g6
(g10
S'\xde}\xbdO\xc7\xb1\xf1?'
p2823
tp2824
Rp2825
sg16
g23
ssI5
(dp2826
g3
S'EURCHF'
p2827
sg5
g6
(g10
S'\xe8ND\xcb\xca\x1f\xf1?'
p2828
tp2829
Rp2830
sg16
g17
ssI6
(dp2831
g3
S'EURCHF'
p2832
sg5
g6
(g10
S'\xd5.a>3\x1d\xf1?'
p2833
tp2834
Rp2835
sg16
g17
ssI7
(dp2836
g3
S'EURCHF'
p2837
sg5
g6
(g10
S'\x89c?3\xf7\x10\xf1?'
p2838
tp2839
Rp2840
sg16
g23
ssI8
(dp2841
g3
S'EURCHF'
p2842
sg5
g6
(g10
S'\x0e\xcf\x86\n?\x1d\xf1?'
p2843
tp2844
Rp2845
sg16
g23
ssI521
(dp2846
g3
S'EURCHF'
p2847
sg5
g6
(g10
S'\xa6m\xba\xcf\x8c^\xf1?'
p2848
tp2849
Rp2850
sg16
g17
ssI524
(dp2851
g3
S'EURCHF'
p2852
sg5
g6
(g10
S'\xda\xe9Vp\xb7\x13\xf1?'
p2853
tp2854
Rp2855
sg16
g17
ssI13
(dp2856
g3
S'EURCHF'
p2857
sg5
g6
(g10
S'J\xb4\xc4\xd9\xce8\xf1?'
p2858
tp2859
Rp2860
sg16
g23
ssI14
(dp2861
g3
S'EURCHF'
p2862
sg5
g6
(g10
S'\x85g\xebC\xf7t\xf1?'
p2863
tp2864
Rp2865
sg16
g17
ssI15
(dp2866
g3
S'EURCHF'
p2867
sg5
g6
(g10
S'}\x86\x01?f\x80\xf1?'
p2868
tp2869
Rp2870
sg16
g17
ssI19
(dp2871
g3
S'EURCHF'
p2872
sg5
g6
(g10
S'\xf7\xdc$\x00\xec\xae\xf1?'
p2873
tp2874
Rp2875
sg16
g23
ssI533
(dp2876
g3
S'EURCHF'
p2877
sg5
g6
(g10
S'\xc1WZ,y\x1b\xf1?'
p2878
tp2879
Rp2880
sg16
g23
ssI22
(dp2881
g3
S'EURCHF'
p2882
sg5
g6
(g10
S'\xc3\xae\xdb\xb1\xee\xa0\xf1?'
p2883
tp2884
Rp2885
sg16
g23
ssI23
(dp2886
g3
S'EURCHF'
p2887
sg5
g6
(g10
S'\xbb" \\H\xa1\xf1?'
p2888
tp2889
Rp2890
sg16
g17
ssI24
(dp2891
g3
S'EURCHF'
p2892
sg5
g6
(g10
S'\xcd\xe0X\xb3x\xa9\xf1?'
p2893
tp2894
Rp2895
sg16
g17
ssI25
(dp2896
g3
S'EURCHF'
p2897
sg5
g6
(g10
S'\x95\x99\xfc\xa4\x0e\xba\xf1?'
p2898
tp2899
Rp2900
sg16
g17
ssI538
(dp2901
g3
S'EURCHF'
p2902
sg5
g6
(g10
S'i\xaa\x0b *>\xf1?'
p2903
tp2904
Rp2905
sg16
g23
ssI27
(dp2906
g3
S'EURCHF'
p2907
sg5
g6
(g10
S'\x13A\xc2\x05\x8e\xcf\xf1?'
p2908
tp2909
Rp2910
sg16
g17
ssI29
(dp2911
g3
S'EURCHF'
p2912
sg5
g6
(g10
S'\xf6\xc8\xb5)\xa4\xbd\xf1?'
p2913
tp2914
Rp2915
sg16
g17
ssI30
(dp2916
g3
S'EURCHF'
p2917
sg5
g6
(g10
S"w\x9f'\xb9\x0f\xb0\xf1?"
p2918
tp2919
Rp2920
sg16
g17
ssI31
(dp2921
g3
S'EURCHF'
p2922
sg5
g6
(g10
S'\x95\x88\xd1nF\xbe\xf1?'
p2923
tp2924
Rp2925
sg16
g23
ssI544
(dp2926
g3
S'EURCHF'
p2927
sg5
g6
(g10
S'\xdd\x1b\xcf\xfc \x1e\xf1?'
p2928
tp2929
Rp2930
sg16
g23
ssI546
(dp2931
g3
S'EURCHF'
p2932
sg5
g6
(g10
S'\xe3qw\xca\xd6\xd2\xf0?'
p2933
tp2934
Rp2935
sg16
g17
ssI547
(dp2936
g3
S'EURCHF'
p2937
sg5
g6
(g10
S'c&\x01\xe6X\xe1\xf0?'
p2938
tp2939
Rp2940
sg16
g17
ssI39
(dp2941
g3
S'EURCHF'
p2942
sg5
g6
(g10
S'|\xa7\x03oo\x11\xf2?'
p2943
tp2944
Rp2945
sg16
g23
ssI514
(dp2946
g3
S'EURCHF'
p2947
sg5
g6
(g10
S'\x8b#^\x99\xe5~\xf1?'
p2948
tp2949
Rp2950
sg16
g23
ssI43
(dp2951
g3
S'EURCHF'
p2952
sg5
g6
(g10
S'\xf1QEi\x06\x1c\xf2?'
p2953
tp2954
Rp2955
sg16
g23
ssI556
(dp2956
g3
S'EURCHF'
p2957
sg5
g6
(g10
S'\xf2%u"\xefp\xf0?'
p2958
tp2959
Rp2960
sg16
g17
ssI557
(dp2961
g3
S'EURCHF'
p2962
sg5
g6
(g10
S"'\xe3`\xd4\x03\x87\xf0?"
p2963
tp2964
Rp2965
sg16
g23
ssI46
(dp2966
g3
S'EURCHF'
p2967
sg5
g6
(g10
S'6FU\x1c\xad\x00\xf2?'
p2968
tp2969
Rp2970
sg16
g23
ssI559
(dp2971
g3
S'EURCHF'
p2972
sg5
g6
(g10
S'\xdc\xa8\x97\x1d,\xa8\xf0?'
p2973
tp2974
Rp2975
sg16
g23
ssI48
(dp2976
g3
S'EURCHF'
p2977
sg5
g6
(g10
S'~\xb7\x9cwX\r\xf2?'
p2978
tp2979
Rp2980
sg16
g17
ssI563
(dp2981
g3
S'EURCHF'
p2982
sg5
g6
(g10
S'\xc0\xfd;\x93\xf1b\xf0?'
p2983
tp2984
Rp2985
sg16
g23
ssI52
(dp2986
g3
S'EURCHF'
p2987
sg5
g6
(g10
S'\xebbqWf\xfc\xf1?'
p2988
tp2989
Rp2990
sg16
g17
ssI53
(dp2991
g3
S'EURCHF'
p2992
sg5
g6
(g10
S'`<\xb9\xbf\x81\x1b\xf2?'
p2993
tp2994
Rp2995
sg16
g23
ssI566
(dp2996
g3
S'EURCHF'
p2997
sg5
g6
(g10
S'p\xdb\xf8\x99\xebw\xf0?'
p2998
tp2999
Rp3000
sg16
g23
ssI55
(dp3001
g3
S'EURCHF'
p3002
sg5
g6
(g10
S'\xc5\xfe\xc4\xf6\xd1\x1f\xf2?'
p3003
tp3004
Rp3005
sg16
g17
ssI56
(dp3006
g3
S'EURCHF'
p3007
sg5
g6
(g10
S'\xe8\xff\x10\xb2\xb7\x1e\xf2?'
p3008
tp3009
Rp3010
sg16
g23
ssI569
(dp3011
g3
S'EURCHF'
p3012
sg5
g6
(g10
S'|\x89\xd7\x91\xff\xcc\xf0?'
p3013
tp3014
Rp3015
sg16
g17
ssI62
(dp3016
g3
S'EURCHF'
p3017
sg5
g6
(g10
S'\x13\x08\x89\x97x\xfc\xf1?'
p3018
tp3019
Rp3020
sg16
g17
ssI64
(dp3021
g3
S'EURCHF'
p3022
sg5
g6
(g10
S'yF0n\xcd\xfa\xf1?'
p3023
tp3024
Rp3025
sg16
g23
ssI525
(dp3026
g3
S'EURCHF'
p3027
sg5
g6
(g10
S'sI\x19\x05\xca\x12\xf1?'
p3028
tp3029
Rp3030
sg16
g23
ssI72
(dp3031
g3
S'EURCHF'
p3032
sg5
g6
(g10
S'\xa7N\xf3\xf4`\xfb\xf1?'
p3033
tp3034
Rp3035
sg16
g23
ssI73
(dp3036
g3
S'EURCHF'
p3037
sg5
g6
(g10
S'vI\x1e~\xd4\xec\xf1?'
p3038
tp3039
Rp3040
sg16
g23
ssI74
(dp3041
g3
S'EURCHF'
p3042
sg5
g6
(g10
S'\xd4\x00\x19U\x02\xd8\xf1?'
p3043
tp3044
Rp3045
sg16
g17
ssI77
(dp3046
g3
S'EURCHF'
p3047
sg5
g6
(g10
S'ygu"\xba\xd1\xf1?'
p3048
tp3049
Rp3050
sg16
g17
ssI78
(dp3051
g3
S'EURCHF'
p3052
sg5
g6
(g10
S'\x8c\x83F\xb6\x85\xe2\xf1?'
p3053
tp3054
Rp3055
sg16
g17
ssI79
(dp3056
g3
S'EURCHF'
p3057
sg5
g6
(g10
S'\xd4\xc3\x93V"\xd7\xf1?'
p3058
tp3059
Rp3060
sg16
g17
ssI80
(dp3061
g3
S'EURCHF'
p3062
sg5
g6
(g10
S'\xef\xc7?\xdd\xf9\xc5\xf1?'
p3063
tp3064
Rp3065
sg16
g17
ssI82
(dp3066
g3
S'EURCHF'
p3067
sg5
g6
(g10
S'\xac\x7f\xb46\x04\xe9\xf1?'
p3068
tp3069
Rp3070
sg16
g23
ssI526
(dp3071
g3
S'EURCHF'
p3072
sg5
g6
(g10
S'\xeb\xa92]\x9a\x11\xf1?'
p3073
tp3074
Rp3075
sg16
g17
ssI86
(dp3076
g3
S'EURCHF'
p3077
sg5
g6
(g10
S'$\xcd\xe1\xb4\xc3\xdd\xf1?'
p3078
tp3079
Rp3080
sg16
g23
ssI87
(dp3081
g3
S'EURCHF'
p3082
sg5
g6
(g10
S'\xf2;ESZ\xe1\xf1?'
p3083
tp3084
Rp3085
sg16
g17
ssI88
(dp3086
g3
S'EURCHF'
p3087
sg5
g6
(g10
S'\xeb\xe0\xa0W\xfc\xd6\xf1?'
p3088
tp3089
Rp3090
sg16
g23
ssI89
(dp3091
g3
S'EURCHF'
p3092
sg5
g6
(g10
S'\xa8\xb6\xd4\xf28\xed\xf1?'
p3093
tp3094
Rp3095
sg16
g17
ssI90
(dp3096
g3
S'EURCHF'
p3097
sg5
g6
(g10
S'\xf2\x9d0\x1b\xf2\xe6\xf1?'
p3098
tp3099
Rp3100
sg16
g17
ssI527
(dp3101
g3
S'EURCHF'
p3102
sg5
g6
(g10
S'\x02\xb1\xed\xe5\xbb\xfb\xf0?'
p3103
tp3104
Rp3105
sg16
g17
ssI92
(dp3106
g3
S'EURCHF'
p3107
sg5
g6
(g10
S'bAO\xcc\x8a\xfb\xf1?'
p3108
tp3109
Rp3110
sg16
g17
ssI93
(dp3111
g3
S'EURCHF'
p3112
sg5
g6
(g10
S'\x8a\x97\xccv\xba\xfd\xf1?'
p3113
tp3114
Rp3115
sg16
g17
ssI94
(dp3116
g3
S'EURCHF'
p3117
sg5
g6
(g10
S'p\xdb\xaf\xd4\xea+\xf2?'
p3118
tp3119
Rp3120
sg16
g17
ssI95
(dp3121
g3
S'EURCHF'
p3122
sg5
g6
(g10
S'(U\x1c\xb1\xe7<\xf2?'
p3123
tp3124
Rp3125
sg16
g17
ssI96
(dp3126
g3
S'EURCHF'
p3127
sg5
g6
(g10
S'\x87\xd9R\xf0\xc6@\xf2?'
p3128
tp3129
Rp3130
sg16
g17
ssI97
(dp3131
g3
S'EURCHF'
p3132
sg5
g6
(g10
S'\xb8\xfd\x92\x19IQ\xf2?'
p3133
tp3134
Rp3135
sg16
g17
ssI98
(dp3136
g3
S'EURCHF'
p3137
sg5
g6
(g10
S'\xd1\xfdr\x15\x82f\xf2?'
p3138
tp3139
Rp3140
sg16
g23
ssI103
(dp3141
g3
S'EURCHF'
p3142
sg5
g6
(g10
S'\x98\xc5\x17?\x82\xb2\xf2?'
p3143
tp3144
Rp3145
sg16
g17
ssI106
(dp3146
g3
S'EURCHF'
p3147
sg5
g6
(g10
S"',\x98\x9d\xca\xb0\xf2?"
p3148
tp3149
Rp3150
sg16
g23
ssI108
(dp3151
g3
S'EURCHF'
p3152
sg5
g6
(g10
S'\x8d$\xba^=\xa6\xf2?'
p3153
tp3154
Rp3155
sg16
g17
ssI110
(dp3156
g3
S'EURCHF'
p3157
sg5
g6
(g10
S'\xdaa h;\xba\xf2?'
p3158
tp3159
Rp3160
sg16
g23
ssI515
(dp3161
g3
S'EURCHF'
p3162
sg5
g6
(g10
S'T\xfb\x0f\xdb\x9f\xc7\xf1?'
p3163
tp3164
Rp3165
sg16
g17
ssI113
(dp3166
g3
S'EURCHF'
p3167
sg5
g6
(g10
S'\xd1\xfc{\x19\xc8\x8d\xf2?'
p3168
tp3169
Rp3170
sg16
g17
ssI115
(dp3171
g3
S'EURCHF'
p3172
sg5
g6
(g10
S'\x9cs\xe6\xf2 \xa7\xf2?'
p3173
tp3174
Rp3175
sg16
g23
ssI116
(dp3176
g3
S'EURCHF'
p3177
sg5
g6
(g10
S'\x14m\x8fl\xf4\xa7\xf2?'
p3178
tp3179
Rp3180
sg16
g17
ssI118
(dp3181
g3
S'EURCHF'
p3182
sg5
g6
(g10
S'\xa7\x96*\xc3\xb8\x93\xf2?'
p3183
tp3184
Rp3185
sg16
g17
ssI119
(dp3186
g3
S'EURCHF'
p3187
sg5
g6
(g10
S'\xa3\x14\\\xe7p\xa4\xf2?'
p3188
tp3189
Rp3190
sg16
g23
ssI122
(dp3191
g3
S'EURCHF'
p3192
sg5
g6
(g10
S'b\x07\xda\xcc\xb8\x8d\xf2?'
p3193
tp3194
Rp3195
sg16
g17
ssI123
(dp3196
g3
S'EURCHF'
p3197
sg5
g6
(g10
S'\xe1\xfd\x8a\xe3\xa5s\xf2?'
p3198
tp3199
Rp3200
sg16
g17
ssI124
(dp3201
g3
S'EURCHF'
p3202
sg5
g6
(g10
S'\x81\x8cOM\x96\x81\xf2?'
p3203
tp3204
Rp3205
sg16
g23
ssI127
(dp3206
g3
S'EURCHF'
p3207
sg5
g6
(g10
S'7w\x92\xa9{\x82\xf2?'
p3208
tp3209
Rp3210
sg16
g17
ssI128
(dp3211
g3
S'EURCHF'
p3212
sg5
g6
(g10
S'"\xa0D\xa5/\xb6\xf2?'
p3213
tp3214
Rp3215
sg16
g17
ssI129
(dp3216
g3
S'EURCHF'
p3217
sg5
g6
(g10
S')%\xad\x05\xc8\xcc\xf2?'
p3218
tp3219
Rp3220
sg16
g17
ssI130
(dp3221
g3
S'EURCHF'
p3222
sg5
g6
(g10
S'\xd0~\xfeS\xbd\xd7\xf2?'
p3223
tp3224
Rp3225
sg16
g23
ssI131
(dp3226
g3
S'EURCHF'
p3227
sg5
g6
(g10
S'\x97i6\x86\xfa\xf0\xf2?'
p3228
tp3229
Rp3230
sg16
g23
ssI132
(dp3231
g3
S'EURCHF'
p3232
sg5
g6
(g10
S'\x15\xe9\r5\x8b\xee\xf2?'
p3233
tp3234
Rp3235
sg16
g23
ssI534
(dp3236
g3
S'EURCHF'
p3237
sg5
g6
(g10
S"\x1b=\x877\xde'\xf1?"
p3238
tp3239
Rp3240
sg16
g23
ssI134
(dp3241
g3
S'EURCHF'
p3242
sg5
g6
(g10
S'ta}\r3\xdb\xf2?'
p3243
tp3244
Rp3245
sg16
g23
ssI137
(dp3246
g3
S'EURCHF'
p3247
sg5
g6
(g10
S'+\x16\xea\x8e2\xb6\xf2?'
p3248
tp3249
Rp3250
sg16
g23
ssI535
(dp3251
g3
S'EURCHF'
p3252
sg5
g6
(g10
S'\x01\xcf\xae\xdd\x7f=\xf1?'
p3253
tp3254
Rp3255
sg16
g23
ssI140
(dp3256
g3
S'EURCHF'
p3257
sg5
g6
(g10
S'{\x89H\xa6e\xd1\xf2?'
p3258
tp3259
Rp3260
sg16
g23
ssI141
(dp3261
g3
S'EURCHF'
p3262
sg5
g6
(g10
S'\xb8\xfd\xd6\x03\x16\x96\xf2?'
p3263
tp3264
Rp3265
sg16
g17
ssI145
(dp3266
g3
S'EURCHF'
p3267
sg5
g6
(g10
S'\xa4\xf5\x19L!\xaf\xf2?'
p3268
tp3269
Rp3270
sg16
g23
ssI146
(dp3271
g3
S'EURCHF'
p3272
sg5
g6
(g10
S'G\x87\x03\x95\xd9\xda\xf2?'
p3273
tp3274
Rp3275
sg16
g17
ssI147
(dp3276
g3
S'EURCHF'
p3277
sg5
g6
(g10
S'\xdd\x90L{k\xe6\xf2?'
p3278
tp3279
Rp3280
sg16
g23
ssI560
(dp3281
g3
S'EURCHF'
p3282
sg5
g6
(g10
S'\xc34\x8eA\xe8\x84\xf0?'
p3283
tp3284
Rp3285
sg16
g23
ssI149
(dp3286
g3
S'EURCHF'
p3287
sg5
g6
(g10
S'\xcf+F\xda\xbb\xdf\xf2?'
p3288
tp3289
Rp3290
sg16
g23
ssI150
(dp3291
g3
S'EURCHF'
p3292
sg5
g6
(g10
S'\x12\xc0\xbc-\xbc\xec\xf2?'
p3293
tp3294
Rp3295
sg16
g23
ssI151
(dp3296
g3
S'EURCHF'
p3297
sg5
g6
(g10
S'}W\xe2C\x1e\xfe\xf2?'
p3298
tp3299
Rp3300
sg16
g17
ssI155
(dp3301
g3
S'EURCHF'
p3302
sg5
g6
(g10
S'q:\xc6\xd5\x8a\xec\xf2?'
p3303
tp3304
Rp3305
sg16
g17
ssI161
(dp3306
g3
S'EURCHF'
p3307
sg5
g6
(g10
S'\xaa\xac\xb8\xc9\xf2\x15\xf3?'
p3308
tp3309
Rp3310
sg16
g23
ssI162
(dp3311
g3
S'EURCHF'
p3312
sg5
g6
(g10
S'\xd5\xb1\xe3\x16\xbf\r\xf3?'
p3313
tp3314
Rp3315
sg16
g17
ssI539
(dp3316
g3
S'EURCHF'
p3317
sg5
g6
(g10
S'z\x89\xbc\x0b \x11\xf1?'
p3318
tp3319
Rp3320
sg16
g17
ssI164
(dp3321
g3
S'EURCHF'
p3322
sg5
g6
(g10
S'\xcfo\x1cJ\xa6\x13\xf3?'
p3323
tp3324
Rp3325
sg16
g17
ssI166
(dp3326
g3
S'EURCHF'
p3327
sg5
g6
(g10
S'\x13\x96\xf4\xf9\xa4\x0f\xf3?'
p3328
tp3329
Rp3330
sg16
g17
ssI167
(dp3331
g3
S'EURCHF'
p3332
sg5
g6
(g10
S'\xccG\xf9\x99\xd4\x1c\xf3?'
p3333
tp3334
Rp3335
sg16
g23
ssI517
(dp3336
g3
S'EURCHF'
p3337
sg5
g6
(g10
S'2\x17\x13\x9f\x9f\x99\xf1?'
p3338
tp3339
Rp3340
sg16
g23
ssI174
(dp3341
g3
S'EURCHF'
p3342
sg5
g6
(g10
S'*T\xd6Y.$\xf3?'
p3343
tp3344
Rp3345
sg16
g17
ssI175
(dp3346
g3
S'EURCHF'
p3347
sg5
g6
(g10
S'\xfd|\xe5\t\xe31\xf3?'
p3348
tp3349
Rp3350
sg16
g17
ssI176
(dp3351
g3
S'EURCHF'
p3352
sg5
g6
(g10
S'(\xad\x1foz>\xf3?'
p3353
tp3354
Rp3355
sg16
g23
ssI180
(dp3356
g3
S'EURCHF'
p3357
sg5
g6
(g10
S'\xa3\x8ap\x80\xbc\x9c\xf3?'
p3358
tp3359
Rp3360
sg16
g17
ssI542
(dp3361
g3
S'EURCHF'
p3362
sg5
g6
(g10
S';\xfb\xc9\x94))\xf1?'
p3363
tp3364
Rp3365
sg16
g23
ssI182
(dp3366
g3
S'EURCHF'
p3367
sg5
g6
(g10
S'\xd0D7\xc6\xb4\xb7\xf3?'
p3368
tp3369
Rp3370
sg16
g23
ssI183
(dp3371
g3
S'EURCHF'
p3372
sg5
g6
(g10
S'\xb4\xa9CM\xcf\xc5\xf3?'
p3373
tp3374
Rp3375
sg16
g17
ssI543
(dp3376
g3
S'EURCHF'
p3377
sg5
g6
(g10
S'\xbbQ\x12bh;\xf1?'
p3378
tp3379
Rp3380
sg16
g17
ssI188
(dp3381
g3
S'EURCHF'
p3382
sg5
g6
(g10
S'\x9a\xf5\xdd\xcaS\xa6\xf3?'
p3383
tp3384
Rp3385
sg16
g23
ssI190
(dp3386
g3
S'EURCHF'
p3387
sg5
g6
(g10
S'\x8e)\xcc\x85v\x9f\xf3?'
p3388
tp3389
Rp3390
sg16
g17
ssI191
(dp3391
g3
S'EURCHF'
p3392
sg5
g6
(g10
S':\xea\xfe\x04H|\xf3?'
p3393
tp3394
Rp3395
sg16
g17
ssI195
(dp3396
g3
S'EURCHF'
p3397
sg5
g6
(g10
S'8 \xc0/Xs\xf3?'
p3398
tp3399
Rp3400
sg16
g17
ssI197
(dp3401
g3
S'EURCHF'
p3402
sg5
g6
(g10
S'j\xa0\xc1Aj\xa2\xf3?'
p3403
tp3404
Rp3405
sg16
g23
ssI198
(dp3406
g3
S'EURCHF'
p3407
sg5
g6
(g10
S'\xf0\xde\x88^\xee\xa6\xf3?'
p3408
tp3409
Rp3410
sg16
g23
ssI203
(dp3411
g3
S'EURCHF'
p3412
sg5
g6
(g10
S'B\xf6\xf9@w\x88\xf3?'
p3413
tp3414
Rp3415
sg16
g23
ssI206
(dp3416
g3
S'EURCHF'
p3417
sg5
g6
(g10
S'\x16\xa0&(1\x92\xf3?'
p3418
tp3419
Rp3420
sg16
g23
ssI207
(dp3421
g3
S'EURCHF'
p3422
sg5
g6
(g10
S'6\xbdu\xd9s\x83\xf3?'
p3423
tp3424
Rp3425
sg16
g23
ssI210
(dp3426
g3
S'EURCHF'
p3427
sg5
g6
(g10
S'\xd4\xa3\xc9\x8b\x1b\\\xf3?'
p3428
tp3429
Rp3430
sg16
g23
ssI212
(dp3431
g3
S'EURCHF'
p3432
sg5
g6
(g10
S'\x8c\\\x14\xfcI9\xf3?'
p3433
tp3434
Rp3435
sg16
g23
ssI215
(dp3436
g3
S'EURCHF'
p3437
sg5
g6
(g10
S'\x05\x8db`\x1a\x1f\xf3?'
p3438
tp3439
Rp3440
sg16
g17
ssI216
(dp3441
g3
S'EURCHF'
p3442
sg5
g6
(g10
S'\xdf\xc3\x1a\xd8\xabB\xf3?'
p3443
tp3444
Rp3445
sg16
g23
ssI217
(dp3446
g3
S'EURCHF'
p3447
sg5
g6
(g10
S'o\xa71\xbf<3\xf3?'
p3448
tp3449
Rp3450
sg16
g17
ssI218
(dp3451
g3
S'EURCHF'
p3452
sg5
g6
(g10
S'\x97\x88\xb8\xf0\xa9"\xf3?'
p3453
tp3454
Rp3455
sg16
g17
ssI219
(dp3456
g3
S'EURCHF'
p3457
sg5
g6
(g10
S'\xe5xz\xab\xca\x17\xf3?'
p3458
tp3459
Rp3460
sg16
g23
ssI224
(dp3461
g3
S'EURCHF'
p3462
sg5
g6
(g10
S'\x01c\xf7}A\xfe\xf2?'
p3463
tp3464
Rp3465
sg16
g17
ssI225
(dp3466
g3
S'EURCHF'
p3467
sg5
g6
(g10
S'3\xd3\x81\xc5H\xe7\xf2?'
p3468
tp3469
Rp3470
sg16
g17
ssI226
(dp3471
g3
S'EURCHF'
p3472
sg5
g6
(g10
S'\xb4\x94\xf2\xbe\xf3 \xf3?'
p3473
tp3474
Rp3475
sg16
g17
ssI227
(dp3476
g3
S'EURCHF'
p3477
sg5
g6
(g10
S'6\x0b\x8d\x0b\xbb&\xf3?'
p3478
tp3479
Rp3480
sg16
g23
ssI228
(dp3481
g3
S'EURCHF'
p3482
sg5
g6
(g10
S'g\xe2\xc5\xb4a\x10\xf3?'
p3483
tp3484
Rp3485
sg16
g23
ssI519
(dp3486
g3
S'EURCHF'
p3487
sg5
g6
(g10
S'f\xed\xec\x8a\xb5\x85\xf1?'
p3488
tp3489
Rp3490
sg16
g23
ssI233
(dp3491
g3
S'EURCHF'
p3492
sg5
g6
(g10
S'|4\xd0k\xb8\xbb\xf2?'
p3493
tp3494
Rp3495
sg16
g23
ssI234
(dp3496
g3
S'EURCHF'
p3497
sg5
g6
(g10
S'\xfaP\x02\xa8\xcb\xc2\xf2?'
p3498
tp3499
Rp3500
sg16
g17
ssI240
(dp3501
g3
S'EURCHF'
p3502
sg5
g6
(g10
S'\xf18\xd6\xd0\x95\xd0\xf2?'
p3503
tp3504
Rp3505
sg16
g17
ssI246
(dp3506
g3
S'EURCHF'
p3507
sg5
g6
(g10
S'p\xbe}\xf6\x0b\xf9\xf2?'
p3508
tp3509
Rp3510
sg16
g17
ssI250
(dp3511
g3
S'EURCHF'
p3512
sg5
g6
(g10
S'\xf0\xf5\xd7\xb3\x9f\xd4\xf2?'
p3513
tp3514
Rp3515
sg16
g17
ssI251
(dp3516
g3
S'EURCHF'
p3517
sg5
g6
(g10
S'\xa4\x94_\xef\xe2\xe4\xf2?'
p3518
tp3519
Rp3520
sg16
g23
ssI253
(dp3521
g3
S'EURCHF'
p3522
sg5
g6
(g10
S'\x9eL\x9dG|\xe2\xf2?'
p3523
tp3524
Rp3525
sg16
g17
ssI254
(dp3526
g3
S'EURCHF'
p3527
sg5
g6
(g10
S'\xd2\xa20\xd6&\xc1\xf2?'
p3528
tp3529
Rp3530
sg16
g23
ssI256
(dp3531
g3
S'EURCHF'
p3532
sg5
g6
(g10
S"\xeb\\\x05'\xec\xcc\xf2?"
p3533
tp3534
Rp3535
sg16
g17
ssI257
(dp3536
g3
S'EURCHF'
p3537
sg5
g6
(g10
S'\xf0\xceC?\x8f\xd7\xf2?'
p3538
tp3539
Rp3540
sg16
g23
ssI259
(dp3541
g3
S'EURCHF'
p3542
sg5
g6
(g10
S'\xe6f\xd0:\xb5\xf2\xf2?'
p3543
tp3544
Rp3545
sg16
g23
ssI260
(dp3546
g3
S'EURCHF'
p3547
sg5
g6
(g10
S'CO\x1dr\xd3\xee\xf2?'
p3548
tp3549
Rp3550
sg16
g17
ssI265
(dp3551
g3
S'EURCHF'
p3552
sg5
g6
(g10
S's\xd3\x9f\xec\xff\xef\xf2?'
p3553
tp3554
Rp3555
sg16
g17
ssI271
(dp3556
g3
S'EURCHF'
p3557
sg5
g6
(g10
S'\x044N\x87n\xda\xf2?'
p3558
tp3559
Rp3560
sg16
g17
ssI273
(dp3561
g3
S'EURCHF'
p3562
sg5
g6
(g10
S'\x1e\xd6\xe8\xba\xbb\xaa\xf2?'
p3563
tp3564
Rp3565
sg16
g23
ssI274
(dp3566
g3
S'EURCHF'
p3567
sg5
g6
(g10
S'\x16\x9e\xbef\x96\x91\xf2?'
p3568
tp3569
Rp3570
sg16
g23
ssI277
(dp3571
g3
S'EURCHF'
p3572
sg5
g6
(g10
S'\xe1\x9fQ\xc7\xfcU\xf2?'
p3573
tp3574
Rp3575
sg16
g17
ssI278
(dp3576
g3
S'EURCHF'
p3577
sg5
g6
(g10
S';~\xf0\xbb\x86J\xf2?'
p3578
tp3579
Rp3580
sg16
g23
ssI279
(dp3581
g3
S'EURCHF'
p3582
sg5
g6
(g10
S'\xc0Og\x008\\\xf2?'
p3583
tp3584
Rp3585
sg16
g23
ssI280
(dp3586
g3
S'EURCHF'
p3587
sg5
g6
(g10
S'\x03\xear\x16\xd7`\xf2?'
p3588
tp3589
Rp3590
sg16
g23
ssI281
(dp3591
g3
S'EURCHF'
p3592
sg5
g6
(g10
S'3C\xa6\x15\x16f\xf2?'
p3593
tp3594
Rp3595
sg16
g23
ssI284
(dp3596
g3
S'EURCHF'
p3597
sg5
g6
(g10
S'\xc0\xcb\xc9j\xd8i\xf2?'
p3598
tp3599
Rp3600
sg16
g23
ssI286
(dp3601
g3
S'EURCHF'
p3602
sg5
g6
(g10
S'\x8a\x02\xf2^\x04W\xf2?'
p3603
tp3604
Rp3605
sg16
g23
ssI287
(dp3606
g3
S'EURCHF'
p3607
sg5
g6
(g10
S'\x1ef\x85f+J\xf2?'
p3608
tp3609
Rp3610
sg16
g23
ssI289
(dp3611
g3
S'EURCHF'
p3612
sg5
g6
(g10
S'\xbb\xff\xf2\x8d\xb1B\xf2?'
p3613
tp3614
Rp3615
sg16
g17
ssI290
(dp3616
g3
S'EURCHF'
p3617
sg5
g6
(g10
S'\x7f\x85\n\xbbQ3\xf2?'
p3618
tp3619
Rp3620
sg16
g23
ssI293
(dp3621
g3
S'EURCHF'
p3622
sg5
g6
(g10
S'\x8b\x02[\xc0\xfb(\xf2?'
p3623
tp3624
Rp3625
sg16
g17
ssI295
(dp3626
g3
S'EURCHF'
p3627
sg5
g6
(g10
S'\xb2\x08\xcc\r\xae\x10\xf2?'
p3628
tp3629
Rp3630
sg16
g23
ssI296
(dp3631
g3
S'EURCHF'
p3632
sg5
g6
(g10
S'T\x9dv/\x90\x1d\xf2?'
p3633
tp3634
Rp3635
sg16
g23
ssI297
(dp3636
g3
S'EURCHF'
p3637
sg5
g6
(g10
S'\xe7s\xc2\xb5\xdd"\xf2?'
p3638
tp3639
Rp3640
sg16
g23
ssI299
(dp3641
g3
S'EURCHF'
p3642
sg5
g6
(g10
S'\xdcPo\xe3\x90\n\xf2?'
p3643
tp3644
Rp3645
sg16
g23
ssI301
(dp3646
g3
S'EURCHF'
p3647
sg5
g6
(g10
S'd\xb5\xcbPK\xbc\xf1?'
p3648
tp3649
Rp3650
sg16
g23
ssI302
(dp3651
g3
S'EURCHF'
p3652
sg5
g6
(g10
S'\xd6\xac\xb5\xcf\xc5\xcd\xf1?'
p3653
tp3654
Rp3655
sg16
g17
ssI303
(dp3656
g3
S'EURCHF'
p3657
sg5
g6
(g10
S'V)\xe2ns\xb3\xf1?'
p3658
tp3659
Rp3660
sg16
g17
ssI306
(dp3661
g3
S'EURCHF'
p3662
sg5
g6
(g10
S'\xa8\xd9\x0b\xf9\xef\xb9\xf1?'
p3663
tp3664
Rp3665
sg16
g23
ssI310
(dp3666
g3
S'EURCHF'
p3667
sg5
g6
(g10
S'\xce0G\xcd\xaa\xce\xf1?'
p3668
tp3669
Rp3670
sg16
g23
ssI312
(dp3671
g3
S'EURCHF'
p3672
sg5
g6
(g10
S'2\xad,\x8f\xf8\xae\xf1?'
p3673
tp3674
Rp3675
sg16
g23
ssI315
(dp3676
g3
S'EURCHF'
p3677
sg5
g6
(g10
S'\xednn;4\xd2\xf1?'
p3678
tp3679
Rp3680
sg16
g17
ssI316
(dp3681
g3
S'EURCHF'
p3682
sg5
g6
(g10
S'0\n\xd0K\xf8\xc4\xf1?'
p3683
tp3684
Rp3685
sg16
g17
ssI317
(dp3686
g3
S'EURCHF'
p3687
sg5
g6
(g10
S'/L\xb8\x04\xb3\xe8\xf1?'
p3688
tp3689
Rp3690
sg16
g17
ssI565
(dp3691
g3
S'EURCHF'
p3692
sg5
g6
(g10
S'\xec!\x93\xfd\x0ff\xf0?'
p3693
tp3694
Rp3695
sg16
g17
ssI323
(dp3696
g3
S'EURCHF'
p3697
sg5
g6
(g10
S'\x84\x0c\xc0L\xac\x03\xf2?'
p3698
tp3699
Rp3700
sg16
g23
ssI324
(dp3701
g3
S'EURCHF'
p3702
sg5
g6
(g10
S'\xd9\xeby\x80\xab\xf8\xf1?'
p3703
tp3704
Rp3705
sg16
g17
ssI326
(dp3706
g3
S'EURCHF'
p3707
sg5
g6
(g10
S'|v\xc9\x0c\xaf\xe2\xf1?'
p3708
tp3709
Rp3710
sg16
g23
ssI327
(dp3711
g3
S'EURCHF'
p3712
sg5
g6
(g10
S'!\xeeqXF\xeb\xf1?'
p3713
tp3714
Rp3715
sg16
g23
ssI329
(dp3716
g3
S'EURCHF'
p3717
sg5
g6
(g10
S'\xdf\x90\x11\x8c/\x04\xf2?'
p3718
tp3719
Rp3720
sg16
g23
ssI330
(dp3721
g3
S'EURCHF'
p3722
sg5
g6
(g10
S'Y\xe8\x95qa\xfb\xf1?'
p3723
tp3724
Rp3725
sg16
g23
ssI335
(dp3726
g3
S'EURCHF'
p3727
sg5
g6
(g10
S'?\xf34p\x81{\xf1?'
p3728
tp3729
Rp3730
sg16
g23
ssI337
(dp3731
g3
S'EURCHF'
p3732
sg5
g6
(g10
S'{P\x97\x83D\x8e\xf1?'
p3733
tp3734
Rp3735
sg16
g17
ssI338
(dp3736
g3
S'EURCHF'
p3737
sg5
g6
(g10
S'y\xed$*\\\x8e\xf1?'
p3738
tp3739
Rp3740
sg16
g17
ssI339
(dp3741
g3
S'EURCHF'
p3742
sg5
g6
(g10
S'\x12\xfeu\xb8)\xb5\xf1?'
p3743
tp3744
Rp3745
sg16
g17
ssI343
(dp3746
g3
S'EURCHF'
p3747
sg5
g6
(g10
S'L\xc3)\xac\xc8\xe3\xf1?'
p3748
tp3749
Rp3750
sg16
g23
ssI346
(dp3751
g3
S'EURCHF'
p3752
sg5
g6
(g10
S'\xc2\xedx\x01\x16\xc8\xf1?'
p3753
tp3754
Rp3755
sg16
g23
ssI348
(dp3756
g3
S'EURCHF'
p3757
sg5
g6
(g10
S'{\xc8\xb4\xf1\x15r\xf1?'
p3758
tp3759
Rp3760
sg16
g17
ssI349
(dp3761
g3
S'EURCHF'
p3762
sg5
g6
(g10
S'\x17\xdb;^#n\xf1?'
p3763
tp3764
Rp3765
sg16
g17
ssI353
(dp3766
g3
S'EURCHF'
p3767
sg5
g6
(g10
S'\x9f\xd5\x8e\xda,\x85\xf1?'
p3768
tp3769
Rp3770
sg16
g23
ssI357
(dp3771
g3
S'EURCHF'
p3772
sg5
g6
(g10
S'\x86|\x0e\x12\x8e`\xf1?'
p3773
tp3774
Rp3775
sg16
g23
ssI358
(dp3776
g3
S'EURCHF'
p3777
sg5
g6
(g10
S'\x8e\x89\xb01\xd3\x19\xf1?'
p3778
tp3779
Rp3780
sg16
g17
ssI362
(dp3781
g3
S'EURCHF'
p3782
sg5
g6
(g10
S'5CA\xf4K\x12\xf1?'
p3783
tp3784
Rp3785
sg16
g23
ssI364
(dp3786
g3
S'EURCHF'
p3787
sg5
g6
(g10
S'v|\xcacy\x11\xf1?'
p3788
tp3789
Rp3790
sg16
g23
ssI368
(dp3791
g3
S'EURCHF'
p3792
sg5
g6
(g10
S'\x9dS\xf0,(\xee\xf0?'
p3793
tp3794
Rp3795
sg16
g23
ssI369
(dp3796
g3
S'EURCHF'
p3797
sg5
g6
(g10
S'\xfa\xb4P\xa9\xf3\xe4\xf0?'
p3798
tp3799
Rp3800
sg16
g17
ssI373
(dp3801
g3
S'EURCHF'
p3802
sg5
g6
(g10
S'>\xce\x03Y\x8f\xd0\xf0?'
p3803
tp3804
Rp3805
sg16
g17
ssI374
(dp3806
g3
S'EURCHF'
p3807
sg5
g6
(g10
S'IO\xfa+\xca\xf2\xf0?'
p3808
tp3809
Rp3810
sg16
g17
ssI376
(dp3811
g3
S'EURCHF'
p3812
sg5
g6
(g10
S'\xb3\x82\xea&r\xe3\xf0?'
p3813
tp3814
Rp3815
sg16
g23
ssI378
(dp3816
g3
S'EURCHF'
p3817
sg5
g6
(g10
S'3\xfe\xb5\xaa8\xda\xf0?'
p3818
tp3819
Rp3820
sg16
g17
ssI380
(dp3821
g3
S'EURCHF'
p3822
sg5
g6
(g10
S'\xbc\xa1\xbd&\x97\xdd\xf0?'
p3823
tp3824
Rp3825
sg16
g17
ssI382
(dp3826
g3
S'EURCHF'
p3827
sg5
g6
(g10
S'\xcd\x92\x10\xa8\x1a\xd1\xf0?'
p3828
tp3829
Rp3830
sg16
g23
ssI383
(dp3831
g3
S'EURCHF'
p3832
sg5
g6
(g10
S'\xe9t6\xfe\xab\xc3\xf0?'
p3833
tp3834
Rp3835
sg16
g17
ssI388
(dp3836
g3
S'EURCHF'
p3837
sg5
g6
(g10
S'a\x17\x88\x9e\xe2\xde\xf0?'
p3838
tp3839
Rp3840
sg16
g23
ssI389
(dp3841
g3
S'EURCHF'
p3842
sg5
g6
(g10
S'\xc4<C\xea\x92\xe5\xf0?'
p3843
tp3844
Rp3845
sg16
g17
ssI391
(dp3846
g3
S'EURCHF'
p3847
sg5
g6
(g10
S'\xc0\x90+-e\xe0\xf0?'
p3848
tp3849
Rp3850
sg16
g23
ssI394
(dp3851
g3
S'EURCHF'
p3852
sg5
g6
(g10
S'6x\xc1$-\xc4\xf0?'
p3853
tp3854
Rp3855
sg16
g17
ssI396
(dp3856
g3
S'EURCHF'
p3857
sg5
g6
(g10
S'\xf1A\xaf%d\xd6\xf0?'
p3858
tp3859
Rp3860
sg16
g17
ssI401
(dp3861
g3
S'EURCHF'
p3862
sg5
g6
(g10
S'\xd6\x8e\x17F\x83\x18\xf1?'
p3863
tp3864
Rp3865
sg16
g17
ssI405
(dp3866
g3
S'EURCHF'
p3867
sg5
g6
(g10
S'\x1bz:\xfe\xb8\x07\xf1?'
p3868
tp3869
Rp3870
sg16
g23
ssI407
(dp3871
g3
S'EURCHF'
p3872
sg5
g6
(g10
S':\xd3\xeb\xac\xf4O\xf1?'
p3873
tp3874
Rp3875
sg16
g23
ssI408
(dp3876
g3
S'EURCHF'
p3877
sg5
g6
(g10
S'\x91Oc \x071\xf1?'
p3878
tp3879
Rp3880
sg16
g23
ssI411
(dp3881
g3
S'EURCHF'
p3882
sg5
g6
(g10
S'k\xb7\x92\x1c\xb65\xf1?'
p3883
tp3884
Rp3885
sg16
g23
ssI412
(dp3886
g3
S'EURCHF'
p3887
sg5
g6
(g10
S'\x85\x18\x15>}[\xf1?'
p3888
tp3889
Rp3890
sg16
g23
ssI413
(dp3891
g3
S'EURCHF'
p3892
sg5
g6
(g10
S'W\xe7\xf4\xf7Pi\xf1?'
p3893
tp3894
Rp3895
sg16
g23
ssI419
(dp3896
g3
S'EURCHF'
p3897
sg5
g6
(g10
S'm*\x91\xa6\x89\x1b\xf1?'
p3898
tp3899
Rp3900
sg16
g17
ssI555
(dp3901
g3
S'EURCHF'
p3902
sg5
g6
(g10
S'jm\xbf\xe5\x1d\x8c\xf0?'
p3903
tp3904
Rp3905
sg16
g17
ssI425
(dp3906
g3
S'EURCHF'
p3907
sg5
g6
(g10
S'\xd6\xc7\xdfF\x85\x17\xf1?'
p3908
tp3909
Rp3910
sg16
g23
ssI427
(dp3911
g3
S'EURCHF'
p3912
sg5
g6
(g10
S'\xc8\xee\x97_\xfe#\xf1?'
p3913
tp3914
Rp3915
sg16
g17
ssI428
(dp3916
g3
S'EURCHF'
p3917
sg5
g6
(g10
S'\xb5P\x18\xfcx\x18\xf1?'
p3918
tp3919
Rp3920
sg16
g17
ssI429
(dp3921
g3
S'EURCHF'
p3922
sg5
g6
(g10
S'0r\x95\x96\xf3(\xf1?'
p3923
tp3924
Rp3925
sg16
g17
ssI430
(dp3926
g3
S'EURCHF'
p3927
sg5
g6
(g10
S'\xeeXL \xd7E\xf1?'
p3928
tp3929
Rp3930
sg16
g23
ssI431
(dp3931
g3
S'EURCHF'
p3932
sg5
g6
(g10
S"\x0f\x7f\x0f\xf0\xd0'\xf1?"
p3933
tp3934
Rp3935
sg16
g17
ssI433
(dp3936
g3
S'EURCHF'
p3937
sg5
g6
(g10
S'B=`\xecEo\xf1?'
p3938
tp3939
Rp3940
sg16
g23
ssI434
(dp3941
g3
S'EURCHF'
p3942
sg5
g6
(g10
S'\x89G\xc2\x12\x10]\xf1?'
p3943
tp3944
Rp3945
sg16
g23
ssI435
(dp3946
g3
S'EURCHF'
p3947
sg5
g6
(g10
S'_\xd3nw~U\xf1?'
p3948
tp3949
Rp3950
sg16
g23
ssI438
(dp3951
g3
S'EURCHF'
p3952
sg5
g6
(g10
S'\x9aYt\xdb\xe2L\xf1?'
p3953
tp3954
Rp3955
sg16
g23
ssI439
(dp3956
g3
S'EURCHF'
p3957
sg5
g6
(g10
S'\xc5\xe5E\xa5\xfdy\xf1?'
p3958
tp3959
Rp3960
sg16
g17
ssI440
(dp3961
g3
S'EURCHF'
p3962
sg5
g6
(g10
S'\xd1\x91\xe9\x0f\x80N\xf1?'
p3963
tp3964
Rp3965
sg16
g23
ssI442
(dp3966
g3
S'EURCHF'
p3967
sg5
g6
(g10
S't\x85#Q\xbcB\xf1?'
p3968
tp3969
Rp3970
sg16
g17
ssI444
(dp3971
g3
S'EURCHF'
p3972
sg5
g6
(g10
S'\xfc\xd1\x1b\xa0\xd3,\xf1?'
p3973
tp3974
Rp3975
sg16
g17
ssI447
(dp3976
g3
S'EURCHF'
p3977
sg5
g6
(g10
S'#N\xefW\xe9.\xf1?'
p3978
tp3979
Rp3980
sg16
g23
ssI448
(dp3981
g3
S'EURCHF'
p3982
sg5
g6
(g10
S'\x7f\xc4\xef\xcbu\x1e\xf1?'
p3983
tp3984
Rp3985
sg16
g23
ssI449
(dp3986
g3
S'EURCHF'
p3987
sg5
g6
(g10
S'Mi\x02,\xa8\x0b\xf1?'
p3988
tp3989
Rp3990
sg16
g23
ssI453
(dp3991
g3
S'EURCHF'
p3992
sg5
g6
(g10
S'ex\xbc\x923\xc5\xf0?'
p3993
tp3994
Rp3995
sg16
g17
ssI455
(dp3996
g3
S'EURCHF'
p3997
sg5
g6
(g10
S'\xd8E\xad\xe1\x97\x95\xf0?'
p3998
tp3999
Rp4000
sg16
g23
ssI458
(dp4001
g3
S'EURCHF'
p4002
sg5
g6
(g10
S'\x16\xdf\xf3\xdd\x92\xc7\xf0?'
p4003
tp4004
Rp4005
sg16
g17
ssI460
(dp4006
g3
S'EURCHF'
p4007
sg5
g6
(g10
S'u\xa8\xd4x0\xfc\xf0?'
p4008
tp4009
Rp4010
sg16
g17
ssI462
(dp4011
g3
S'EURCHF'
p4012
sg5
g6
(g10
S'\x06K\x8fh)\x03\xf1?'
p4013
tp4014
Rp4015
sg16
g23
ssI466
(dp4016
g3
S'EURCHF'
p4017
sg5
g6
(g10
S'\x9e\xf9\x9a\xd0\x0b\xe7\xf0?'
p4018
tp4019
Rp4020
sg16
g17
ssI467
(dp4021
g3
S'EURCHF'
p4022
sg5
g6
(g10
S'\xbaT\xde\x01{\x14\xf1?'
p4023
tp4024
Rp4025
sg16
g17
ssI470
(dp4026
g3
S'EURCHF'
p4027
sg5
g6
(g10
S']l\x052m\x05\xf1?'
p4028
tp4029
Rp4030
sg16
g17
ssI474
(dp4031
g3
S'EURCHF'
p4032
sg5
g6
(g10
S'\xb0\x13,\xbeM\x11\xf1?'
p4033
tp4034
Rp4035
sg16
g23
ssI476
(dp4036
g3
S'EURCHF'
p4037
sg5
g6
(g10
S'$\xb4|\xc4C\x0f\xf1?'
p4038
tp4039
Rp4040
sg16
g17
ssI478
(dp4041
g3
S'EURCHF'
p4042
sg5
g6
(g10
S'&\xc0\xc9\x12p\xd4\xf0?'
p4043
tp4044
Rp4045
sg16
g17
ssI483
(dp4046
g3
S'EURCHF'
p4047
sg5
g6
(g10
S'\xa9X\xf15\x1f\x16\xf1?'
p4048
tp4049
Rp4050
sg16
g23
ssI484
(dp4051
g3
S'EURCHF'
p4052
sg5
g6
(g10
S'\xbd\xf0\xf6B\xe2\x08\xf1?'
p4053
tp4054
Rp4055
sg16
g17
ssI487
(dp4056
g3
S'EURCHF'
p4057
sg5
g6
(g10
S'\x94|\xca\xcbc\xf6\xf0?'
p4058
tp4059
Rp4060
sg16
g17
ssI493
(dp4061
g3
S'EURCHF'
p4062
sg5
g6
(g10
S'\x94\xfds^\xe3J\xf1?'
p4063
tp4064
Rp4065
sg16
g17
ssI494
(dp4066
g3
S'EURCHF'
p4067
sg5
g6
(g10
S'^\xacA[N3\xf1?'
p4068
tp4069
Rp4070
sg16
g17
ssI495
(dp4071
g3
S'EURCHF'
p4072
sg5
g6
(g10
S'Tu\x17\x06\xb9%\xf1?'
p4073
tp4074
Rp4075
sg16
g17
ssI496
(dp4076
g3
S'EURCHF'
p4077
sg5
g6
(g10
S'\x88`U\xa1\xea9\xf1?'
p4078
tp4079
Rp4080
sg16
g23
ssI497
(dp4081
g3
S'EURCHF'
p4082
sg5
g6
(g10
S'\x8c\xf7\xafVZP\xf1?'
p4083
tp4084
Rp4085
sg16
g17
ssI502
(dp4086
g3
S'EURCHF'
p4087
sg5
g6
(g10
S'%\x8a\x95\xda\x07]\xf1?'
p4088
tp4089
Rp4090
sg16
g17
ssI503
(dp4091
g3
S'EURCHF'
p4092
sg5
g6
(g10
S'\x9dZ\x01\x18=n\xf1?'
p4093
tp4094
Rp4095
sg16
g23
ssI504
(dp4096
g3
S'EURCHF'
p4097
sg5
g6
(g10
S'\xc4\x92\x93\x81\xb2^\xf1?'
p4098
tp4099
Rp4100
sg16
g23
ssI507
(dp4101
g3
S'EURCHF'
p4102
sg5
g6
(g10
S'R\xc94\x14\xedQ\xf1?'
p4103
tp4104
Rp4105
sg16
g17
ssI508
(dp4106
g3
S'EURCHF'
p4107
sg5
g6
(g10
S'\xf44B\xbe\xf6M\xf1?'
p4108
tp4109
Rp4110
sg16
g23
ssI509
(dp4111
g3
S'EURCHF'
p4112
sg5
g6
(g10
S'\x12!\xf9\xc9\xc8i\xf1?'
p4113
tp4114
Rp4115
sg16
g23
ssI510
(dp4116
g3
S'EURCHF'
p4117
sg5
g6
(g10
S'\x8b#\xf7\xa7P\x90\xf1?'
p4118
tp4119
Rp4120
sg16
g17
ssa(dp4121
I512
(dp4122
g3
S'CHFJPY'
p4123
sg5
g6
(g10
S'X\x85p0\x94\x0c\\@'
p4124
tp4125
Rp4126
sg16
g23
ssI1
(dp4127
g3
S'CHFJPY'
p4128
sg5
g6
(g10
S'1\x99\xac\xac\xa6)\\@'
p4129
tp4130
Rp4131
sg16
g17
ssI514
(dp4132
g3
S'CHFJPY'
p4133
sg5
g6
(g10
S'\x06\xae\xe5\xbf\x1b\xc7[@'
p4134
tp4135
Rp4136
sg16
g17
ssI515
(dp4137
g3
S'CHFJPY'
p4138
sg5
g6
(g10
S'_L\xeb\x7f.\xf0[@'
p4139
tp4140
Rp4141
sg16
g23
ssI4
(dp4142
g3
S'CHFJPY'
p4143
sg5
g6
(g10
S'\xf7\x1d\xf9\xb1>\x95\\@'
p4144
tp4145
Rp4146
sg16
g23
ssI513
(dp4147
g3
S'CHFJPY'
p4148
sg5
g6
(g10
S'O\xa6\x91~Z\xf0[@'
p4149
tp4150
Rp4151
sg16
g23
ssI8
(dp4152
g3
S'CHFJPY'
p4153
sg5
g6
(g10
S'\xbe\x16\xfa\x1b\xca\xb2\\@'
p4154
tp4155
Rp4156
sg16
g23
ssI9
(dp4157
g3
S'CHFJPY'
p4158
sg5
g6
(g10
S'\xe2/\xf1\xcc\xf0x\\@'
p4159
tp4160
Rp4161
sg16
g17
ssI10
(dp4162
g3
S'CHFJPY'
p4163
sg5
g6
(g10
S'\x9bU\xbb\xfa\x9dj\\@'
p4164
tp4165
Rp4166
sg16
g17
ssI11
(dp4167
g3
S'CHFJPY'
p4168
sg5
g6
(g10
S'\xde\x06^\x18\x02s\\@'
p4169
tp4170
Rp4171
sg16
g17
ssI14
(dp4172
g3
S'CHFJPY'
p4173
sg5
g6
(g10
S'\xe8@\xd4\x83~\x9a\\@'
p4174
tp4175
Rp4176
sg16
g23
ssI15
(dp4177
g3
S'CHFJPY'
p4178
sg5
g6
(g10
S'\x81\xf3\x1f\xa5&\x8d\\@'
p4179
tp4180
Rp4181
sg16
g23
ssI16
(dp4182
g3
S'CHFJPY'
p4183
sg5
g6
(g10
S'u\xc8\xe0F\xc4\xa8\\@'
p4184
tp4185
Rp4186
sg16
g23
ssI18
(dp4187
g3
S'CHFJPY'
p4188
sg5
g6
(g10
S'\x9b\x17\x9f\xd0?\xa9\\@'
p4189
tp4190
Rp4191
sg16
g23
ssI531
(dp4192
g3
S'CHFJPY'
p4193
sg5
g6
(g10
S'0\xab\xa7g\x10\xa6[@'
p4194
tp4195
Rp4196
sg16
g23
ssI21
(dp4197
g3
S'CHFJPY'
p4198
sg5
g6
(g10
S'7 }\xdb\x87u\\@'
p4199
tp4200
Rp4201
sg16
g23
ssI23
(dp4202
g3
S'CHFJPY'
p4203
sg5
g6
(g10
S'<!\x13^\xd0\x80\\@'
p4204
tp4205
Rp4206
sg16
g23
ssI24
(dp4207
g3
S'CHFJPY'
p4208
sg5
g6
(g10
S'\x9e\x15\x87\xd5|\x1e\\@'
p4209
tp4210
Rp4211
sg16
g17
ssI25
(dp4212
g3
S'CHFJPY'
p4213
sg5
g6
(g10
S'Q\x1d\x96_\xe3\xe1[@'
p4214
tp4215
Rp4216
sg16
g17
ssI26
(dp4217
g3
S'CHFJPY'
p4218
sg5
g6
(g10
S'\xb3\x9c\r\xa7\x1c\xfe[@'
p4219
tp4220
Rp4221
sg16
g23
ssI27
(dp4222
g3
S'CHFJPY'
p4223
sg5
g6
(g10
S'b\xf9\xe9\x05S\xff[@'
p4224
tp4225
Rp4226
sg16
g17
ssI540
(dp4227
g3
S'CHFJPY'
p4228
sg5
g6
(g10
S'\x08d,\x0f\x04\xa3[@'
p4229
tp4230
Rp4231
sg16
g23
ssI30
(dp4232
g3
S'CHFJPY'
p4233
sg5
g6
(g10
S'\xab\xc2di\x0bY\\@'
p4234
tp4235
Rp4236
sg16
g23
ssI32
(dp4237
g3
S'CHFJPY'
p4238
sg5
g6
(g10
S'\xd0\x8e\x1e\xbf\xe6i\\@'
p4239
tp4240
Rp4241
sg16
g23
ssI33
(dp4242
g3
S'CHFJPY'
p4243
sg5
g6
(g10
S"'\xa5\xb2\xe3\x9fz\\@"
p4244
tp4245
Rp4246
sg16
g23
ssI34
(dp4247
g3
S'CHFJPY'
p4248
sg5
g6
(g10
S'\x8c\x92F\x82\t`\\@'
p4249
tp4250
Rp4251
sg16
g23
ssI35
(dp4252
g3
S'CHFJPY'
p4253
sg5
g6
(g10
S'\x07\xe7\xcdD\xccC\\@'
p4254
tp4255
Rp4256
sg16
g23
ssI36
(dp4257
g3
S'CHFJPY'
p4258
sg5
g6
(g10
S'C5\xbe\x90Xa\\@'
p4259
tp4260
Rp4261
sg16
g23
ssI37
(dp4262
g3
S'CHFJPY'
p4263
sg5
g6
(g10
S'\xdd\xe3z\x06\xa5>\\@'
p4264
tp4265
Rp4266
sg16
g23
ssI38
(dp4267
g3
S'CHFJPY'
p4268
sg5
g6
(g10
S'\xedm[P9L\\@'
p4269
tp4270
Rp4271
sg16
g23
ssI39
(dp4272
g3
S'CHFJPY'
p4273
sg5
g6
(g10
S'\xed\x17\xf9\x94nQ\\@'
p4274
tp4275
Rp4276
sg16
g23
ssI552
(dp4277
g3
S'CHFJPY'
p4278
sg5
g6
(g10
S'\x1f\xe4\np\x9c\xd2[@'
p4279
tp4280
Rp4281
sg16
g17
ssI554
(dp4282
g3
S'CHFJPY'
p4283
sg5
g6
(g10
S'\xb8\x1a\xea\xe0W\x15\\@'
p4284
tp4285
Rp4286
sg16
g23
ssI43
(dp4287
g3
S'CHFJPY'
p4288
sg5
g6
(g10
S'n\xc2\xb8\xf6\xc9\xe4[@'
p4289
tp4290
Rp4291
sg16
g17
ssI44
(dp4292
g3
S'CHFJPY'
p4293
sg5
g6
(g10
S'lt\xc9\x7f\xc9\x01\\@'
p4294
tp4295
Rp4296
sg16
g23
ssI47
(dp4297
g3
S'CHFJPY'
p4298
sg5
g6
(g10
S'\xfc\x0bB\xc3\xe9\x12\\@'
p4299
tp4300
Rp4301
sg16
g17
ssI50
(dp4302
g3
S'CHFJPY'
p4303
sg5
g6
(g10
S'\\\xea6\x19\x84C\\@'
p4304
tp4305
Rp4306
sg16
g17
ssI51
(dp4307
g3
S'CHFJPY'
p4308
sg5
g6
(g10
S'\xf2\x05_)i9\\@'
p4309
tp4310
Rp4311
sg16
g17
ssI564
(dp4312
g3
S'CHFJPY'
p4313
sg5
g6
(g10
S'\x98<i^\xd8I\\@'
p4314
tp4315
Rp4316
sg16
g17
ssI53
(dp4317
g3
S'CHFJPY'
p4318
sg5
g6
(g10
S'\x82R\xfb.\x1dc\\@'
p4319
tp4320
Rp4321
sg16
g23
ssI54
(dp4322
g3
S'CHFJPY'
p4323
sg5
g6
(g10
S'\x89\x9bH\x86\xd2\x8e\\@'
p4324
tp4325
Rp4326
sg16
g23
ssI567
(dp4327
g3
S'CHFJPY'
p4328
sg5
g6
(g10
S'\xc2\x10\x9d\x83\x1a<\\@'
p4329
tp4330
Rp4331
sg16
g17
ssI569
(dp4332
g3
S'CHFJPY'
p4333
sg5
g6
(g10
S'D\xac\x00\x84M\xa2\\@'
p4334
tp4335
Rp4336
sg16
g17
ssI59
(dp4337
g3
S'CHFJPY'
p4338
sg5
g6
(g10
S'\xd3\x07\xc4-ac\\@'
p4339
tp4340
Rp4341
sg16
g17
ssI62
(dp4342
g3
S'CHFJPY'
p4343
sg5
g6
(g10
S'\x90\xb0\x9bML\x99\\@'
p4344
tp4345
Rp4346
sg16
g17
ssI63
(dp4347
g3
S'CHFJPY'
p4348
sg5
g6
(g10
S'\x05\xd8\xf8\xd9\xf4\xc8\\@'
p4349
tp4350
Rp4351
sg16
g23
ssI64
(dp4352
g3
S'CHFJPY'
p4353
sg5
g6
(g10
S'[}Y\xb1I\x93\\@'
p4354
tp4355
Rp4356
sg16
g23
ssI66
(dp4357
g3
S'CHFJPY'
p4358
sg5
g6
(g10
S'\xc0|m\x15^\xa4\\@'
p4359
tp4360
Rp4361
sg16
g23
ssI72
(dp4362
g3
S'CHFJPY'
p4363
sg5
g6
(g10
S'\xb6\x7f\xab\x13\xdes\\@'
p4364
tp4365
Rp4366
sg16
g23
ssI76
(dp4367
g3
S'CHFJPY'
p4368
sg5
g6
(g10
S'\xa99N\x85N&\\@'
p4369
tp4370
Rp4371
sg16
g23
ssI565
(dp4372
g3
S'CHFJPY'
p4373
sg5
g6
(g10
S'\x04t\xa6;4@\\@'
p4374
tp4375
Rp4376
sg16
g17
ssI81
(dp4377
g3
S'CHFJPY'
p4378
sg5
g6
(g10
S'\x0f\xf0\xf1\xf0B\xa3[@'
p4379
tp4380
Rp4381
sg16
g17
ssI83
(dp4382
g3
S'CHFJPY'
p4383
sg5
g6
(g10
S'\x0e\x17\x80\xd3\x10\xed[@'
p4384
tp4385
Rp4386
sg16
g17
ssI85
(dp4387
g3
S'CHFJPY'
p4388
sg5
g6
(g10
S'\xda\xdbUb\xed\r\\@'
p4389
tp4390
Rp4391
sg16
g17
ssI87
(dp4392
g3
S'CHFJPY'
p4393
sg5
g6
(g10
S'"\xe3y\xeamb\\@'
p4394
tp4395
Rp4396
sg16
g23
ssI527
(dp4397
g3
S'CHFJPY'
p4398
sg5
g6
(g10
S'Ldl\x83\xe3\xf5[@'
p4399
tp4400
Rp4401
sg16
g23
ssI92
(dp4402
g3
S'CHFJPY'
p4403
sg5
g6
(g10
S'\xaf[\x12Q\nX\\@'
p4404
tp4405
Rp4406
sg16
g23
ssI96
(dp4407
g3
S'CHFJPY'
p4408
sg5
g6
(g10
S'\xf3\xe9\xe0\x947\x0f\\@'
p4409
tp4410
Rp4411
sg16
g23
ssI97
(dp4412
g3
S'CHFJPY'
p4413
sg5
g6
(g10
S'\xd7\xa2\xce\x06\xff\xe1[@'
p4414
tp4415
Rp4416
sg16
g23
ssI99
(dp4417
g3
S'CHFJPY'
p4418
sg5
g6
(g10
S'\x9d\xc4\x19\x08\xee\xd3[@'
p4419
tp4420
Rp4421
sg16
g17
ssI104
(dp4422
g3
S'CHFJPY'
p4423
sg5
g6
(g10
S'E\xc2J\xc9H\xdb[@'
p4424
tp4425
Rp4426
sg16
g17
ssI111
(dp4427
g3
S'CHFJPY'
p4428
sg5
g6
(g10
S'm\xafp/\xb0i\\@'
p4429
tp4430
Rp4431
sg16
g23
ssI113
(dp4432
g3
S'CHFJPY'
p4433
sg5
g6
(g10
S'\x80m\x06\xe1\xf4t\\@'
p4434
tp4435
Rp4436
sg16
g23
ssI114
(dp4437
g3
S'CHFJPY'
p4438
sg5
g6
(g10
S'\xadp\x9eD_T\\@'
p4439
tp4440
Rp4441
sg16
g23
ssI116
(dp4442
g3
S'CHFJPY'
p4443
sg5
g6
(g10
S'\xb6\xcd\x9eKcX\\@'
p4444
tp4445
Rp4446
sg16
g23
ssI119
(dp4447
g3
S'CHFJPY'
p4448
sg5
g6
(g10
S'\x9b\xd2\xed\xc3U8\\@'
p4449
tp4450
Rp4451
sg16
g23
ssI121
(dp4452
g3
S'CHFJPY'
p4453
sg5
g6
(g10
S'>\xc9\xca\xb9\x94B\\@'
p4454
tp4455
Rp4456
sg16
g17
ssI123
(dp4457
g3
S'CHFJPY'
p4458
sg5
g6
(g10
S'\xe3!Ed\xc6\x7f\\@'
p4459
tp4460
Rp4461
sg16
g17
ssI125
(dp4462
g3
S'CHFJPY'
p4463
sg5
g6
(g10
S'\xea\x87\xd08(A\\@'
p4464
tp4465
Rp4466
sg16
g17
ssI128
(dp4467
g3
S'CHFJPY'
p4468
sg5
g6
(g10
S'\xe78\x84\xccb\xb2\\@'
p4469
tp4470
Rp4471
sg16
g23
ssI130
(dp4472
g3
S'CHFJPY'
p4473
sg5
g6
(g10
S'\xae\x03;\xa8<\xb4\\@'
p4474
tp4475
Rp4476
sg16
g23
ssI133
(dp4477
g3
S'CHFJPY'
p4478
sg5
g6
(g10
S'P\xfc<\x98J\x88\\@'
p4479
tp4480
Rp4481
sg16
g17
ssI136
(dp4482
g3
S'CHFJPY'
p4483
sg5
g6
(g10
S'B\xbe\xce\xc5\xe3\xe8\\@'
p4484
tp4485
Rp4486
sg16
g17
ssI140
(dp4487
g3
S'CHFJPY'
p4488
sg5
g6
(g10
S'\xdf\n\nP\xfd\x13]@'
p4489
tp4490
Rp4491
sg16
g23
ssI141
(dp4492
g3
S'CHFJPY'
p4493
sg5
g6
(g10
S'\x90c$e\xaf,]@'
p4494
tp4495
Rp4496
sg16
g17
ssI142
(dp4497
g3
S'CHFJPY'
p4498
sg5
g6
(g10
S'=\x9c\xbbn+.]@'
p4499
tp4500
Rp4501
sg16
g23
ssI144
(dp4502
g3
S'CHFJPY'
p4503
sg5
g6
(g10
S'\x1e.\x94\xc7\x88\xf2\\@'
p4504
tp4505
Rp4506
sg16
g23
ssI148
(dp4507
g3
S'CHFJPY'
p4508
sg5
g6
(g10
S'\xd1\x91\xbaL ~\\@'
p4509
tp4510
Rp4511
sg16
g17
ssI150
(dp4512
g3
S'CHFJPY'
p4513
sg5
g6
(g10
S'\xd0y\xf0Z(\x91\\@'
p4514
tp4515
Rp4516
sg16
g23
ssI152
(dp4517
g3
S'CHFJPY'
p4518
sg5
g6
(g10
S'\xd7\x0f\xb4t\x13\xb0\\@'
p4519
tp4520
Rp4521
sg16
g17
ssI153
(dp4522
g3
S'CHFJPY'
p4523
sg5
g6
(g10
S'4\x9e\xa9\xaf)\xb1\\@'
p4524
tp4525
Rp4526
sg16
g23
ssI538
(dp4527
g3
S'CHFJPY'
p4528
sg5
g6
(g10
S'\xd6f\xe8\xe6\xb3\x8b[@'
p4529
tp4530
Rp4531
sg16
g17
ssI158
(dp4532
g3
S'CHFJPY'
p4533
sg5
g6
(g10
S'\xa4\xdf\x84\xee51\\@'
p4534
tp4535
Rp4536
sg16
g23
ssI160
(dp4537
g3
S'CHFJPY'
p4538
sg5
g6
(g10
S'Z\xa6I\xad\xb2M\\@'
p4539
tp4540
Rp4541
sg16
g23
ssI539
(dp4542
g3
S'CHFJPY'
p4543
sg5
g6
(g10
S'\x93\xbd\xfeE!\xad[@'
p4544
tp4545
Rp4546
sg16
g23
ssI165
(dp4547
g3
S'CHFJPY'
p4548
sg5
g6
(g10
S'9\x92\xd9TfF\\@'
p4549
tp4550
Rp4551
sg16
g17
ssI169
(dp4552
g3
S'CHFJPY'
p4553
sg5
g6
(g10
S'\x83\xd1K\x84\x1bW\\@'
p4554
tp4555
Rp4556
sg16
g17
ssI170
(dp4557
g3
S'CHFJPY'
p4558
sg5
g6
(g10
S'\xef\xf5\xbaCp\x93\\@'
p4559
tp4560
Rp4561
sg16
g17
ssI171
(dp4562
g3
S'CHFJPY'
p4563
sg5
g6
(g10
S'*\x0ei,g\x8d\\@'
p4564
tp4565
Rp4566
sg16
g17
ssI172
(dp4567
g3
S'CHFJPY'
p4568
sg5
g6
(g10
S'@a*6^~\\@'
p4569
tp4570
Rp4571
sg16
g17
ssI173
(dp4572
g3
S'CHFJPY'
p4573
sg5
g6
(g10
S'\xb3]\x14v\x84m\\@'
p4574
tp4575
Rp4576
sg16
g17
ssI174
(dp4577
g3
S'CHFJPY'
p4578
sg5
g6
(g10
S'\x80\x1f\xe7\xc8\x10x\\@'
p4579
tp4580
Rp4581
sg16
g17
ssI176
(dp4582
g3
S'CHFJPY'
p4583
sg5
g6
(g10
S'`m\xb0W\xbc\xaf\\@'
p4584
tp4585
Rp4586
sg16
g17
ssI177
(dp4587
g3
S'CHFJPY'
p4588
sg5
g6
(g10
S'\xb2\x07\x18d\x15\xc7\\@'
p4589
tp4590
Rp4591
sg16
g17
ssI181
(dp4592
g3
S'CHFJPY'
p4593
sg5
g6
(g10
S"\xda\xfc\xe0\xe0\xe6']@"
p4594
tp4595
Rp4596
sg16
g23
ssI182
(dp4597
g3
S'CHFJPY'
p4598
sg5
g6
(g10
S'f\x80\xfe\xf7}\xfd\\@'
p4599
tp4600
Rp4601
sg16
g23
ssI188
(dp4602
g3
S'CHFJPY'
p4603
sg5
g6
(g10
S'"g\xd7]\xc2\xb0\\@'
p4604
tp4605
Rp4606
sg16
g23
ssI189
(dp4607
g3
S'CHFJPY'
p4608
sg5
g6
(g10
S'\x96,IN,\x8e\\@'
p4609
tp4610
Rp4611
sg16
g23
ssI190
(dp4612
g3
S'CHFJPY'
p4613
sg5
g6
(g10
S'\x17)yE\x169\\@'
p4614
tp4615
Rp4616
sg16
g23
ssI191
(dp4617
g3
S'CHFJPY'
p4618
sg5
g6
(g10
S't\x7f\xca\xd6"2\\@'
p4619
tp4620
Rp4621
sg16
g23
ssI193
(dp4622
g3
S'CHFJPY'
p4623
sg5
g6
(g10
S'\xe4\x86\x8c\x87\xcc2\\@'
p4624
tp4625
Rp4626
sg16
g17
ssI194
(dp4627
g3
S'CHFJPY'
p4628
sg5
g6
(g10
S'\xcf\x06\xe0\xce\xb2<\\@'
p4629
tp4630
Rp4631
sg16
g17
ssI195
(dp4632
g3
S'CHFJPY'
p4633
sg5
g6
(g10
S'\xfa\xf6\xba\xc8\x82%\\@'
p4634
tp4635
Rp4636
sg16
g17
ssI196
(dp4637
g3
S'CHFJPY'
p4638
sg5
g6
(g10
S'\xf6\xa0\xbd\xa0\x13\xdd[@'
p4639
tp4640
Rp4641
sg16
g17
ssI197
(dp4642
g3
S'CHFJPY'
p4643
sg5
g6
(g10
S'\xe2\x833\xee\xdc\xee[@'
p4644
tp4645
Rp4646
sg16
g23
ssI198
(dp4647
g3
S'CHFJPY'
p4648
sg5
g6
(g10
S'\xd6?\xb9\x7fo(\\@'
p4649
tp4650
Rp4651
sg16
g23
ssI545
(dp4652
g3
S'CHFJPY'
p4653
sg5
g6
(g10
S'?\xfc\xd67\xdb|[@'
p4654
tp4655
Rp4656
sg16
g17
ssI200
(dp4657
g3
S'CHFJPY'
p4658
sg5
g6
(g10
S'\xa0\x1dv3cS\\@'
p4659
tp4660
Rp4661
sg16
g23
ssI201
(dp4662
g3
S'CHFJPY'
p4663
sg5
g6
(g10
S'\xc3\xcf\x0f\xb4/_\\@'
p4664
tp4665
Rp4666
sg16
g23
ssI203
(dp4667
g3
S'CHFJPY'
p4668
sg5
g6
(g10
S'I\x90\xcc\x0b\xe7\x1e\\@'
p4669
tp4670
Rp4671
sg16
g17
ssI204
(dp4672
g3
S'CHFJPY'
p4673
sg5
g6
(g10
S'i\xf3\x958\n\n\\@'
p4674
tp4675
Rp4676
sg16
g17
ssI546
(dp4677
g3
S'CHFJPY'
p4678
sg5
g6
(g10
S'\t\x9c\xa2o\xd6\x90[@'
p4679
tp4680
Rp4681
sg16
g17
ssI206
(dp4682
g3
S'CHFJPY'
p4683
sg5
g6
(g10
S'\x1d\xc5E\x98\x93\x18\\@'
p4684
tp4685
Rp4686
sg16
g23
ssI207
(dp4687
g3
S'CHFJPY'
p4688
sg5
g6
(g10
S'eQKr\x9c\x0f\\@'
p4689
tp4690
Rp4691
sg16
g23
ssI209
(dp4692
g3
S'CHFJPY'
p4693
sg5
g6
(g10
S'!\xa7o\x18[\x1b\\@'
p4694
tp4695
Rp4696
sg16
g23
ssI210
(dp4697
g3
S'CHFJPY'
p4698
sg5
g6
(g10
S'ry\xca\xb0\x9f\x0f\\@'
p4699
tp4700
Rp4701
sg16
g23
ssI211
(dp4702
g3
S'CHFJPY'
p4703
sg5
g6
(g10
S'\xb1\x86\xca\xd9c\n\\@'
p4704
tp4705
Rp4706
sg16
g17
ssI214
(dp4707
g3
S'CHFJPY'
p4708
sg5
g6
(g10
S"9o'[\x8b\x0e\\@"
p4709
tp4710
Rp4711
sg16
g17
ssI216
(dp4712
g3
S'CHFJPY'
p4713
sg5
g6
(g10
S'\xde\xc6\xb7P\x1b\x19\\@'
p4714
tp4715
Rp4716
sg16
g17
ssI548
(dp4717
g3
S'CHFJPY'
p4718
sg5
g6
(g10
S'\x0b\x04\xf2\x9aP\xb2[@'
p4719
tp4720
Rp4721
sg16
g17
ssI219
(dp4722
g3
S'CHFJPY'
p4723
sg5
g6
(g10
S'"B\xe2\xf5\xda%\\@'
p4724
tp4725
Rp4726
sg16
g17
ssI222
(dp4727
g3
S'CHFJPY'
p4728
sg5
g6
(g10
S'u\x00\xa8\xae\xa9\x7f\\@'
p4729
tp4730
Rp4731
sg16
g23
ssI549
(dp4732
g3
S'CHFJPY'
p4733
sg5
g6
(g10
S'\t9\xe1\x13\xf0\xb1[@'
p4734
tp4735
Rp4736
sg16
g17
ssI224
(dp4737
g3
S'CHFJPY'
p4738
sg5
g6
(g10
S'\xb8\xdb\xd8\xb1\xb4\x8f\\@'
p4739
tp4740
Rp4741
sg16
g23
ssI226
(dp4742
g3
S'CHFJPY'
p4743
sg5
g6
(g10
S'\xb3\xfbR\x11"[\\@'
p4744
tp4745
Rp4746
sg16
g23
ssI229
(dp4747
g3
S'CHFJPY'
p4748
sg5
g6
(g10
S'\x1dy\xe7\xa9\x8ar\\@'
p4749
tp4750
Rp4751
sg16
g23
ssI232
(dp4752
g3
S'CHFJPY'
p4753
sg5
g6
(g10
S'\x1e\x9f\x1b\xcaE\n\\@'
p4754
tp4755
Rp4756
sg16
g23
ssI233
(dp4757
g3
S'CHFJPY'
p4758
sg5
g6
(g10
S'2\xb2\xae\xd8\xad\x1a\\@'
p4759
tp4760
Rp4761
sg16
g23
ssI234
(dp4762
g3
S'CHFJPY'
p4763
sg5
g6
(g10
S'\xfdZ\x83\t\x92 \\@'
p4764
tp4765
Rp4766
sg16
g23
ssI551
(dp4767
g3
S'CHFJPY'
p4768
sg5
g6
(g10
S'&$\xec\x85A\xa4[@'
p4769
tp4770
Rp4771
sg16
g17
ssI237
(dp4772
g3
S'CHFJPY'
p4773
sg5
g6
(g10
S'\xb0f.K\xb3\xd1[@'
p4774
tp4775
Rp4776
sg16
g17
ssI238
(dp4777
g3
S'CHFJPY'
p4778
sg5
g6
(g10
S'\xf4-\x97\xb2\xa0\xa3[@'
p4779
tp4780
Rp4781
sg16
g23
ssI241
(dp4782
g3
S'CHFJPY'
p4783
sg5
g6
(g10
S'\xf4\x9d\xf0\xebT2[@'
p4784
tp4785
Rp4786
sg16
g17
ssI243
(dp4787
g3
S'CHFJPY'
p4788
sg5
g6
(g10
S'\xbdX\xf8\x80\x16W[@'
p4789
tp4790
Rp4791
sg16
g17
ssI244
(dp4792
g3
S'CHFJPY'
p4793
sg5
g6
(g10
S'\xcdXG0\x9cb[@'
p4794
tp4795
Rp4796
sg16
g17
ssI245
(dp4797
g3
S'CHFJPY'
p4798
sg5
g6
(g10
S'\xbd\xdda\xd6\x9bn[@'
p4799
tp4800
Rp4801
sg16
g17
ssI247
(dp4802
g3
S'CHFJPY'
p4803
sg5
g6
(g10
S'cH\xd5\x8f\x87\xc5[@'
p4804
tp4805
Rp4806
sg16
g17
ssI248
(dp4807
g3
S'CHFJPY'
p4808
sg5
g6
(g10
S'O\xc5S>\x8b\xac[@'
p4809
tp4810
Rp4811
sg16
g17
ssI249
(dp4812
g3
S'CHFJPY'
p4813
sg5
g6
(g10
S'\x1d\xebP\x96\x02\xb0[@'
p4814
tp4815
Rp4816
sg16
g17
ssI254
(dp4817
g3
S'CHFJPY'
p4818
sg5
g6
(g10
S'\\\xf1\xf9H\xf6\x80\\@'
p4819
tp4820
Rp4821
sg16
g23
ssI256
(dp4822
g3
S'CHFJPY'
p4823
sg5
g6
(g10
S'\xb4\xde\xbc\xca\x97m\\@'
p4824
tp4825
Rp4826
sg16
g23
ssI257
(dp4827
g3
S'CHFJPY'
p4828
sg5
g6
(g10
S'o\xabi\xe8.X\\@'
p4829
tp4830
Rp4831
sg16
g23
ssI258
(dp4832
g3
S'CHFJPY'
p4833
sg5
g6
(g10
S'\xb6.\x94V\xc8O\\@'
p4834
tp4835
Rp4836
sg16
g23
ssI555
(dp4837
g3
S'CHFJPY'
p4838
sg5
g6
(g10
S'y5\x13\x8c\x18\x0b\\@'
p4839
tp4840
Rp4841
sg16
g17
ssI261
(dp4842
g3
S'CHFJPY'
p4843
sg5
g6
(g10
S'\xaf[o\xc3q"\\@'
p4844
tp4845
Rp4846
sg16
g17
ssI263
(dp4847
g3
S'CHFJPY'
p4848
sg5
g6
(g10
S'38.\xc9\xbf\xe3[@'
p4849
tp4850
Rp4851
sg16
g17
ssI264
(dp4852
g3
S'CHFJPY'
p4853
sg5
g6
(g10
S'\xe7\xcbz\x88\x06#\\@'
p4854
tp4855
Rp4856
sg16
g23
ssI265
(dp4857
g3
S'CHFJPY'
p4858
sg5
g6
(g10
S'\xb1\x99\xb5w\x0f\x1d\\@'
p4859
tp4860
Rp4861
sg16
g23
ssI267
(dp4862
g3
S'CHFJPY'
p4863
sg5
g6
(g10
S'4\xb4\xca\x88\xae\x00\\@'
p4864
tp4865
Rp4866
sg16
g23
ssI268
(dp4867
g3
S'CHFJPY'
p4868
sg5
g6
(g10
S'O|\x14\xc4\xac\x08\\@'
p4869
tp4870
Rp4871
sg16
g17
ssI269
(dp4872
g3
S'CHFJPY'
p4873
sg5
g6
(g10
S'\x92A\xdeO\xf0\xcd[@'
p4874
tp4875
Rp4876
sg16
g17
ssI272
(dp4877
g3
S'CHFJPY'
p4878
sg5
g6
(g10
S'\xbbTt\t\xe6\xd2[@'
p4879
tp4880
Rp4881
sg16
g17
ssI281
(dp4882
g3
S'CHFJPY'
p4883
sg5
g6
(g10
S'\xb3\x8frH\xbbM\\@'
p4884
tp4885
Rp4886
sg16
g17
ssI283
(dp4887
g3
S'CHFJPY'
p4888
sg5
g6
(g10
S'Z\x934y\x9b9\\@'
p4889
tp4890
Rp4891
sg16
g17
ssI284
(dp4892
g3
S'CHFJPY'
p4893
sg5
g6
(g10
S'7\xa1\xba\x83\x0f`\\@'
p4894
tp4895
Rp4896
sg16
g17
ssI286
(dp4897
g3
S'CHFJPY'
p4898
sg5
g6
(g10
S'K(#\xe0\x9d}\\@'
p4899
tp4900
Rp4901
sg16
g23
ssI287
(dp4902
g3
S'CHFJPY'
p4903
sg5
g6
(g10
S'&$\xb4*\xf7\xbe\\@'
p4904
tp4905
Rp4906
sg16
g23
ssI288
(dp4907
g3
S'CHFJPY'
p4908
sg5
g6
(g10
S'\xd5\xce~G1\xa0\\@'
p4909
tp4910
Rp4911
sg16
g17
ssI289
(dp4912
g3
S'CHFJPY'
p4913
sg5
g6
(g10
S'\x89\xda\x16\xfaf\xba\\@'
p4914
tp4915
Rp4916
sg16
g17
ssI290
(dp4917
g3
S'CHFJPY'
p4918
sg5
g6
(g10
S'\x03\xf7\xd7h\xb6\x8a\\@'
p4919
tp4920
Rp4921
sg16
g23
ssI291
(dp4922
g3
S'CHFJPY'
p4923
sg5
g6
(g10
S'j\x16\xd5s\x8cm\\@'
p4924
tp4925
Rp4926
sg16
g23
ssI294
(dp4927
g3
S'CHFJPY'
p4928
sg5
g6
(g10
S'\\,\xe1\x0eK\xc8\\@'
p4929
tp4930
Rp4931
sg16
g17
ssI298
(dp4932
g3
S'CHFJPY'
p4933
sg5
g6
(g10
S'\xd4qp\xf3\x0b\xb4\\@'
p4934
tp4935
Rp4936
sg16
g17
ssI300
(dp4937
g3
S'CHFJPY'
p4938
sg5
g6
(g10
S'4\xb2u\x8eb"]@'
p4939
tp4940
Rp4941
sg16
g17
ssI302
(dp4942
g3
S'CHFJPY'
p4943
sg5
g6
(g10
S'\xfb!\xee\x8b\xb8F]@'
p4944
tp4945
Rp4946
sg16
g17
ssI303
(dp4947
g3
S'CHFJPY'
p4948
sg5
g6
(g10
S'\x18\xa3l\xac\xec:]@'
p4949
tp4950
Rp4951
sg16
g23
ssI306
(dp4952
g3
S'CHFJPY'
p4953
sg5
g6
(g10
S'\x00\x05]\xb7o\x8d]@'
p4954
tp4955
Rp4956
sg16
g23
ssI563
(dp4957
g3
S'CHFJPY'
p4958
sg5
g6
(g10
S'\x1ef*\x81\xa7\x12\\@'
p4959
tp4960
Rp4961
sg16
g17
ssI309
(dp4962
g3
S'CHFJPY'
p4963
sg5
g6
(g10
S'\xf2\xcc<,\xc58]@'
p4964
tp4965
Rp4966
sg16
g17
ssI310
(dp4967
g3
S'CHFJPY'
p4968
sg5
g6
(g10
S'\x9af\xbd~MB]@'
p4969
tp4970
Rp4971
sg16
g17
ssI313
(dp4972
g3
S'CHFJPY'
p4973
sg5
g6
(g10
S' \xb4\xca\x8c<2]@'
p4974
tp4975
Rp4976
sg16
g17
ssI314
(dp4977
g3
S'CHFJPY'
p4978
sg5
g6
(g10
S'\xc0+4\xe8\x80J]@'
p4979
tp4980
Rp4981
sg16
g17
ssI317
(dp4982
g3
S'CHFJPY'
p4983
sg5
g6
(g10
S'\xd4\xd0\xee\x8d\xa9\x87]@'
p4984
tp4985
Rp4986
sg16
g17
ssI319
(dp4987
g3
S'CHFJPY'
p4988
sg5
g6
(g10
S'#\x12\xb4\x1d\xb5\x8c]@'
p4989
tp4990
Rp4991
sg16
g23
ssI320
(dp4992
g3
S'CHFJPY'
p4993
sg5
g6
(g10
S'j\xf9gi"a]@'
p4994
tp4995
Rp4996
sg16
g17
ssI322
(dp4997
g3
S'CHFJPY'
p4998
sg5
g6
(g10
S'He\xf1\x02r\x8e]@'
p4999
tp5000
Rp5001
sg16
g23
ssI323
(dp5002
g3
S'CHFJPY'
p5003
sg5
g6
(g10
S'\x90,gL\x9bc]@'
p5004
tp5005
Rp5006
sg16
g23
ssI324
(dp5007
g3
S'CHFJPY'
p5008
sg5
g6
(g10
S'DN@~\x89\x80]@'
p5009
tp5010
Rp5011
sg16
g23
ssI325
(dp5012
g3
S'CHFJPY'
p5013
sg5
g6
(g10
S'\x831|\x1e\x1en]@'
p5014
tp5015
Rp5016
sg16
g23
ssI326
(dp5017
g3
S'CHFJPY'
p5018
sg5
g6
(g10
S')3\x06\xbd\xbd)]@'
p5019
tp5020
Rp5021
sg16
g17
ssI332
(dp5022
g3
S'CHFJPY'
p5023
sg5
g6
(g10
S'k\x9d\\\x89\xb9\x1a]@'
p5024
tp5025
Rp5026
sg16
g23
ssI334
(dp5027
g3
S'CHFJPY'
p5028
sg5
g6
(g10
S'\xe40g\xe2\xcc6]@'
p5029
tp5030
Rp5031
sg16
g23
ssI336
(dp5032
g3
S'CHFJPY'
p5033
sg5
g6
(g10
S'\x0f\xf5\x8dO\xc4\xf1\\@'
p5034
tp5035
Rp5036
sg16
g17
ssI337
(dp5037
g3
S'CHFJPY'
p5038
sg5
g6
(g10
S'\xdf]%\xe8\xa2\t]@'
p5039
tp5040
Rp5041
sg16
g17
ssI340
(dp5042
g3
S'CHFJPY'
p5043
sg5
g6
(g10
S'\xe1\xcb\x82\xfb\xb9\x19]@'
p5044
tp5045
Rp5046
sg16
g23
ssI343
(dp5047
g3
S'CHFJPY'
p5048
sg5
g6
(g10
S'\x03v\xb3]b3]@'
p5049
tp5050
Rp5051
sg16
g17
ssI347
(dp5052
g3
S'CHFJPY'
p5053
sg5
g6
(g10
S'A\xba\xe5\x91N\xec\\@'
p5054
tp5055
Rp5056
sg16
g17
ssI348
(dp5057
g3
S'CHFJPY'
p5058
sg5
g6
(g10
S'\xbf\xa3B\xe3b?]@'
p5059
tp5060
Rp5061
sg16
g23
ssI349
(dp5062
g3
S'CHFJPY'
p5063
sg5
g6
(g10
S'\xf9\xe4\n\xf7\xd3\x13]@'
p5064
tp5065
Rp5066
sg16
g17
ssI350
(dp5067
g3
S'CHFJPY'
p5068
sg5
g6
(g10
S'\xc3\xbaQ2u\x1d]@'
p5069
tp5070
Rp5071
sg16
g23
ssI351
(dp5072
g3
S'CHFJPY'
p5073
sg5
g6
(g10
S'\x05\xd8_ \x02@]@'
p5074
tp5075
Rp5076
sg16
g23
ssI353
(dp5077
g3
S'CHFJPY'
p5078
sg5
g6
(g10
S'\x87V\xdd\x91\x878]@'
p5079
tp5080
Rp5081
sg16
g23
ssI355
(dp5082
g3
S'CHFJPY'
p5083
sg5
g6
(g10
S'0\xdaj\xf2\\\x01]@'
p5084
tp5085
Rp5086
sg16
g23
ssI356
(dp5087
g3
S'CHFJPY'
p5088
sg5
g6
(g10
S'\xaa\xc4\x7f\xca5\xea\\@'
p5089
tp5090
Rp5091
sg16
g23
ssI357
(dp5092
g3
S'CHFJPY'
p5093
sg5
g6
(g10
S'0\xf5\xa7\x89x\xbe\\@'
p5094
tp5095
Rp5096
sg16
g23
ssI360
(dp5097
g3
S'CHFJPY'
p5098
sg5
g6
(g10
S'\x89N\x11+\x10\x8b\\@'
p5099
tp5100
Rp5101
sg16
g23
ssI361
(dp5102
g3
S'CHFJPY'
p5103
sg5
g6
(g10
S't\xe1\xd6\x85[\x95\\@'
p5104
tp5105
Rp5106
sg16
g17
ssI363
(dp5107
g3
S'CHFJPY'
p5108
sg5
g6
(g10
S'\xde$\xa3>\xb6\xd8\\@'
p5109
tp5110
Rp5111
sg16
g17
ssI365
(dp5112
g3
S'CHFJPY'
p5113
sg5
g6
(g10
S'%k\xe5)V\x91\\@'
p5114
tp5115
Rp5116
sg16
g17
ssI366
(dp5117
g3
S'CHFJPY'
p5118
sg5
g6
(g10
S' v\x8fI\xb0\xb4\\@'
p5119
tp5120
Rp5121
sg16
g17
ssI368
(dp5122
g3
S'CHFJPY'
p5123
sg5
g6
(g10
S'Y\xc2\nZ\xb5\x06]@'
p5124
tp5125
Rp5126
sg16
g23
ssI370
(dp5127
g3
S'CHFJPY'
p5128
sg5
g6
(g10
S'E\x85|g\x90"]@'
p5129
tp5130
Rp5131
sg16
g23
ssI377
(dp5132
g3
S'CHFJPY'
p5133
sg5
g6
(g10
S'\xd2NAqa\xd0\\@'
p5134
tp5135
Rp5136
sg16
g17
ssI378
(dp5137
g3
S'CHFJPY'
p5138
sg5
g6
(g10
S'?U\x84\x1c\xcf\x02]@'
p5139
tp5140
Rp5141
sg16
g23
ssI379
(dp5142
g3
S'CHFJPY'
p5143
sg5
g6
(g10
S'\x9f\xe8V\xc6\x92\x1d]@'
p5144
tp5145
Rp5146
sg16
g23
ssI381
(dp5147
g3
S'CHFJPY'
p5148
sg5
g6
(g10
S'w\x86\x1f\x13w\xe9\\@'
p5149
tp5150
Rp5151
sg16
g23
ssI382
(dp5152
g3
S'CHFJPY'
p5153
sg5
g6
(g10
S'SV6\x9a2\xed\\@'
p5154
tp5155
Rp5156
sg16
g23
ssI384
(dp5157
g3
S'CHFJPY'
p5158
sg5
g6
(g10
S'\x91l\xacQBi\\@'
p5159
tp5160
Rp5161
sg16
g17
ssI385
(dp5162
g3
S'CHFJPY'
p5163
sg5
g6
(g10
S'\x91\xc1$g\xcez\\@'
p5164
tp5165
Rp5166
sg16
g17
ssI386
(dp5167
g3
S'CHFJPY'
p5168
sg5
g6
(g10
S'\xd6>c$\xdbH\\@'
p5169
tp5170
Rp5171
sg16
g17
ssI388
(dp5172
g3
S'CHFJPY'
p5173
sg5
g6
(g10
S'\x8f\x9d\xf4\x9e\x93\x9e\\@'
p5174
tp5175
Rp5176
sg16
g17
ssI390
(dp5177
g3
S'CHFJPY'
p5178
sg5
g6
(g10
S'N\x90\xd5\x8a\xd1\x9a\\@'
p5179
tp5180
Rp5181
sg16
g23
ssI392
(dp5182
g3
S'CHFJPY'
p5183
sg5
g6
(g10
S'\xbb\xaf\xc1\xb2t<\\@'
p5184
tp5185
Rp5186
sg16
g17
ssI394
(dp5187
g3
S'CHFJPY'
p5188
sg5
g6
(g10
S'\xc2\x8e>(1E\\@'
p5189
tp5190
Rp5191
sg16
g17
ssI395
(dp5192
g3
S'CHFJPY'
p5193
sg5
g6
(g10
S'\x97\xd6\x8a9\xa1z\\@'
p5194
tp5195
Rp5196
sg16
g23
ssI396
(dp5197
g3
S'CHFJPY'
p5198
sg5
g6
(g10
S'\xf4125\x132\\@'
p5199
tp5200
Rp5201
sg16
g17
ssI398
(dp5202
g3
S'CHFJPY'
p5203
sg5
g6
(g10
S'\xff\xfflN\xdbl\\@'
p5204
tp5205
Rp5206
sg16
g17
ssI408
(dp5207
g3
S'CHFJPY'
p5208
sg5
g6
(g10
S'o\xe3O\x83o\xdc\\@'
p5209
tp5210
Rp5211
sg16
g17
ssI410
(dp5212
g3
S'CHFJPY'
p5213
sg5
g6
(g10
S'\xcc3\xa4)\x94\xf1\\@'
p5214
tp5215
Rp5216
sg16
g23
ssI411
(dp5217
g3
S'CHFJPY'
p5218
sg5
g6
(g10
S'6\x85\xfe\x00\x14\x0e]@'
p5219
tp5220
Rp5221
sg16
g23
ssI416
(dp5222
g3
S'CHFJPY'
p5223
sg5
g6
(g10
S'\xf6\xc5\xf1\xf9\xf5\xb5\\@'
p5224
tp5225
Rp5226
sg16
g23
ssI417
(dp5227
g3
S'CHFJPY'
p5228
sg5
g6
(g10
S'Z\x9f\r\xbeD\xc2\\@'
p5229
tp5230
Rp5231
sg16
g23
ssI419
(dp5232
g3
S'CHFJPY'
p5233
sg5
g6
(g10
S'7\xc5\xa0\xe7\xac\xa4\\@'
p5234
tp5235
Rp5236
sg16
g17
ssI421
(dp5237
g3
S'CHFJPY'
p5238
sg5
g6
(g10
S'\x14\xe3\x9fR\xe9\x9d\\@'
p5239
tp5240
Rp5241
sg16
g23
ssI422
(dp5242
g3
S'CHFJPY'
p5243
sg5
g6
(g10
S'\xf0\xb3\xd2\xdeKg\\@'
p5244
tp5245
Rp5246
sg16
g23
ssI423
(dp5247
g3
S'CHFJPY'
p5248
sg5
g6
(g10
S'\x86\xe3\xe3\xae<h\\@'
p5249
tp5250
Rp5251
sg16
g17
ssI425
(dp5252
g3
S'CHFJPY'
p5253
sg5
g6
(g10
S'\x86}\x8e\xddm~\\@'
p5254
tp5255
Rp5256
sg16
g23
ssI429
(dp5257
g3
S'CHFJPY'
p5258
sg5
g6
(g10
S'\x11\x16\xab5\x8eZ\\@'
p5259
tp5260
Rp5261
sg16
g17
ssI432
(dp5262
g3
S'CHFJPY'
p5263
sg5
g6
(g10
S'\x04\xd2@@\x11\x8e\\@'
p5264
tp5265
Rp5266
sg16
g17
ssI434
(dp5267
g3
S'CHFJPY'
p5268
sg5
g6
(g10
S'\xbea\x1e\t\xa7\x90\\@'
p5269
tp5270
Rp5271
sg16
g17
ssI435
(dp5272
g3
S'CHFJPY'
p5273
sg5
g6
(g10
S'VUA\x0c\x8e\xa8\\@'
p5274
tp5275
Rp5276
sg16
g17
ssI436
(dp5277
g3
S'CHFJPY'
p5278
sg5
g6
(g10
S'\xcf\xff\x90\xb5\xfe\xe0\\@'
p5279
tp5280
Rp5281
sg16
g23
ssI440
(dp5282
g3
S'CHFJPY'
p5283
sg5
g6
(g10
S'Q\xfc\xe6~3\xd2\\@'
p5284
tp5285
Rp5286
sg16
g17
ssI441
(dp5287
g3
S'CHFJPY'
p5288
sg5
g6
(g10
S'(\xbd\xa3\xbe\xd2\xd6\\@'
p5289
tp5290
Rp5291
sg16
g17
ssI443
(dp5292
g3
S'CHFJPY'
p5293
sg5
g6
(g10
S'i\xcc\xa1\xcf`\xd5\\@'
p5294
tp5295
Rp5296
sg16
g17
ssI444
(dp5297
g3
S'CHFJPY'
p5298
sg5
g6
(g10
S'\x1a\xabX\x8cp\xd4\\@'
p5299
tp5300
Rp5301
sg16
g23
ssI446
(dp5302
g3
S'CHFJPY'
p5303
sg5
g6
(g10
S'\x90\xad\xda\x80\x90\xde\\@'
p5304
tp5305
Rp5306
sg16
g17
ssI447
(dp5307
g3
S'CHFJPY'
p5308
sg5
g6
(g10
S'\x83_5\xe2\x80\x9f\\@'
p5309
tp5310
Rp5311
sg16
g23
ssI449
(dp5312
g3
S'CHFJPY'
p5313
sg5
g6
(g10
S'~\x10\xca\x94L\xd1\\@'
p5314
tp5315
Rp5316
sg16
g23
ssI452
(dp5317
g3
S'CHFJPY'
p5318
sg5
g6
(g10
S'\x14\x8aN\xd1\x15\x89\\@'
p5319
tp5320
Rp5321
sg16
g17
ssI453
(dp5322
g3
S'CHFJPY'
p5323
sg5
g6
(g10
S'\xed\xeaH\xbb\xee\x8b\\@'
p5324
tp5325
Rp5326
sg16
g17
ssI455
(dp5327
g3
S'CHFJPY'
p5328
sg5
g6
(g10
S'r\xcd\xff\x11\x19\xb5\\@'
p5329
tp5330
Rp5331
sg16
g17
ssI459
(dp5332
g3
S'CHFJPY'
p5333
sg5
g6
(g10
S'\xa4O\xe1v\x84\x11]@'
p5334
tp5335
Rp5336
sg16
g23
ssI460
(dp5337
g3
S'CHFJPY'
p5338
sg5
g6
(g10
S'\xfa\xb7LsH\x08]@'
p5339
tp5340
Rp5341
sg16
g23
ssI461
(dp5342
g3
S'CHFJPY'
p5343
sg5
g6
(g10
S'\xe77N\xf3\xa3\x15]@'
p5344
tp5345
Rp5346
sg16
g23
ssI462
(dp5347
g3
S'CHFJPY'
p5348
sg5
g6
(g10
S'Y\x16C0o\xca\\@'
p5349
tp5350
Rp5351
sg16
g23
ssI463
(dp5352
g3
S'CHFJPY'
p5353
sg5
g6
(g10
S'\xc0\x15\xa3w\xf8\xd3\\@'
p5354
tp5355
Rp5356
sg16
g17
ssI464
(dp5357
g3
S'CHFJPY'
p5358
sg5
g6
(g10
S'\xcd\xbd9\xf2\xd2\xe7\\@'
p5359
tp5360
Rp5361
sg16
g23
ssI465
(dp5362
g3
S'CHFJPY'
p5363
sg5
g6
(g10
S'\xb0\xb9Q\xf4\xa4\xdc\\@'
p5364
tp5365
Rp5366
sg16
g23
ssI472
(dp5367
g3
S'CHFJPY'
p5368
sg5
g6
(g10
S'k\xa9\xb5\xd3\x90\xdf\\@'
p5369
tp5370
Rp5371
sg16
g17
ssI474
(dp5372
g3
S'CHFJPY'
p5373
sg5
g6
(g10
S'\xce\xf0\xba\xf5S\r]@'
p5374
tp5375
Rp5376
sg16
g23
ssI476
(dp5377
g3
S'CHFJPY'
p5378
sg5
g6
(g10
S'\xba\x01\x98_\xaak]@'
p5379
tp5380
Rp5381
sg16
g23
ssI477
(dp5382
g3
S'CHFJPY'
p5383
sg5
g6
(g10
S'\xc9\xa1\x95\xfb\x1f\t]@'
p5384
tp5385
Rp5386
sg16
g23
ssI479
(dp5387
g3
S'CHFJPY'
p5388
sg5
g6
(g10
S'\xf4\x8a\\\xbdd\xcd\\@'
p5389
tp5390
Rp5391
sg16
g17
ssI480
(dp5392
g3
S'CHFJPY'
p5393
sg5
g6
(g10
S'H\x16\xb6w/\xcd\\@'
p5394
tp5395
Rp5396
sg16
g17
ssI485
(dp5397
g3
S'CHFJPY'
p5398
sg5
g6
(g10
S'o\xc2\xd26\x84\xce\\@'
p5399
tp5400
Rp5401
sg16
g23
ssI488
(dp5402
g3
S'CHFJPY'
p5403
sg5
g6
(g10
S'0\xc6oc\xd2\xb1\\@'
p5404
tp5405
Rp5406
sg16
g23
ssI490
(dp5407
g3
S'CHFJPY'
p5408
sg5
g6
(g10
S'm\xcb\x16\xfb\xd9J\\@'
p5409
tp5410
Rp5411
sg16
g23
ssI492
(dp5412
g3
S'CHFJPY'
p5413
sg5
g6
(g10
S'\xb5\xbf\x83\\:;\\@'
p5414
tp5415
Rp5416
sg16
g23
ssI495
(dp5417
g3
S'CHFJPY'
p5418
sg5
g6
(g10
S'\xd6]\xd5W\x8f\xd0[@'
p5419
tp5420
Rp5421
sg16
g17
ssI496
(dp5422
g3
S'CHFJPY'
p5423
sg5
g6
(g10
S'e\xf8@\xeb]\xb8[@'
p5424
tp5425
Rp5426
sg16
g17
ssI497
(dp5427
g3
S'CHFJPY'
p5428
sg5
g6
(g10
S':\xf4\xfdIb\xb3[@'
p5429
tp5430
Rp5431
sg16
g17
ssI498
(dp5432
g3
S'CHFJPY'
p5433
sg5
g6
(g10
S'\x81E9\xab\xac\xeb[@'
p5434
tp5435
Rp5436
sg16
g17
ssI502
(dp5437
g3
S'CHFJPY'
p5438
sg5
g6
(g10
S'?r\xe4\xbci\t\\@'
p5439
tp5440
Rp5441
sg16
g17
ssI503
(dp5442
g3
S'CHFJPY'
p5443
sg5
g6
(g10
S'\xad\xb7\x0e7:,\\@'
p5444
tp5445
Rp5446
sg16
g23
ssI505
(dp5447
g3
S'CHFJPY'
p5448
sg5
g6
(g10
S'p\x7f-\x1bw)\\@'
p5449
tp5450
Rp5451
sg16
g23
ssI507
(dp5452
g3
S'CHFJPY'
p5453
sg5
g6
(g10
S'\xa5\x87@e\xad\x17\\@'
p5454
tp5455
Rp5456
sg16
g23
ssI508
(dp5457
g3
S'CHFJPY'
p5458
sg5
g6
(g10
S'\xb0\x8c\x00l\xcf\x02\\@'
p5459
tp5460
Rp5461
sg16
g23
ssI509
(dp5462
g3
S'CHFJPY'
p5463
sg5
g6
(g10
S'\xbb\x9d\x1e\x07\x07\xdb[@'
p5464
tp5465
Rp5466
sg16
g23
ssI511
(dp5467
g3
S'CHFJPY'
p5468
sg5
g6
(g10
S')\x053\x98\x9e\xed[@'
p5469
tp5470
Rp5471
sg16
g17
ssa.