(lp0
(dp1
I0
(dp2
S'pair'
p3
S'EURCAD'
p4
sS'price'
p5
cnumpy.core.multiarray
scalar
p6
(cnumpy
dtype
p7
(S'f8'
p8
I0
I1
tp9
Rp10
(I3
S'<'
p11
NNNI-1
I-1
I0
tp12
bS'\xf7S\x01\xc4\x08\xc9\xf7?'
p13
tp14
Rp15
sS'side'
p16
S'sell'
p17
ssI5
(dp18
g3
S'EURCAD'
p19
sg5
g6
(g10
S'l\xe1~;\xcc\x7f\xf7?'
p20
tp21
Rp22
sg16
g17
ssI7
(dp23
g3
S'EURCAD'
p24
sg5
g6
(g10
S'ht=\x83\xe5\x87\xf7?'
p25
tp26
Rp27
sg16
g17
ssI9
(dp28
g3
S'EURCAD'
p29
sg5
g6
(g10
S'W\xfc\xa2\xbb\xc5m\xf7?'
p30
tp31
Rp32
sg16
S'buy'
p33
ssI10
(dp34
g3
S'EURCAD'
p35
sg5
g6
(g10
S'\x15R\xbb)\x0bE\xf7?'
p36
tp37
Rp38
sg16
g33
ssI12
(dp39
g3
S'EURCAD'
p40
sg5
g6
(g10
S'\xb7M-\xd5\x9al\xf7?'
p41
tp42
Rp43
sg16
g17
ssI13
(dp44
g3
S'EURCAD'
p45
sg5
g6
(g10
S'\x0e}E\x1erX\xf7?'
p46
tp47
Rp48
sg16
g33
ssI16
(dp49
g3
S'EURCAD'
p50
sg5
g6
(g10
S'\xa4\xd6\xfdmE\x87\xf7?'
p51
tp52
Rp53
sg16
g17
ssI18
(dp54
g3
S'EURCAD'
p55
sg5
g6
(g10
S'\x86v.9~\x95\xf7?'
p56
tp57
Rp58
sg16
g17
ssI19
(dp59
g3
S'EURCAD'
p60
sg5
g6
(g10
S'\x9b\xe2\xd4\x9aA\xa8\xf7?'
p61
tp62
Rp63
sg16
g33
ssI20
(dp64
g3
S'EURCAD'
p65
sg5
g6
(g10
S'\xd0\xff\xa4\x1a\xad\x8e\xf7?'
p66
tp67
Rp68
sg16
g17
ssI23
(dp69
g3
S'EURCAD'
p70
sg5
g6
(g10
S'\xe1\x86\x97\x89j\x80\xf7?'
p71
tp72
Rp73
sg16
g17
ssI24
(dp74
g3
S'EURCAD'
p75
sg5
g6
(g10
S'P\x1c.\xf2\x064\xf7?'
p76
tp77
Rp78
sg16
g33
ssI25
(dp79
g3
S'EURCAD'
p80
sg5
g6
(g10
S'lu(\xa8\x97\x19\xf7?'
p81
tp82
Rp83
sg16
g33
ssI27
(dp84
g3
S'EURCAD'
p85
sg5
g6
(g10
S'\xcaY\xe5\xc9\xc4\xfd\xf6?'
p86
tp87
Rp88
sg16
g33
ssI29
(dp89
g3
S'EURCAD'
p90
sg5
g6
(g10
S'iD.\x86\xca\xe6\xf6?'
p91
tp92
Rp93
sg16
g33
ssI30
(dp94
g3
S'EURCAD'
p95
sg5
g6
(g10
S'\xf6\x07j\xfd\xe0\xf5\xf6?'
p96
tp97
Rp98
sg16
g17
ssI33
(dp99
g3
S'EURCAD'
p100
sg5
g6
(g10
S'\x8eY\xd2N\x1c\xf1\xf6?'
p101
tp102
Rp103
sg16
g17
ssI34
(dp104
g3
S'EURCAD'
p105
sg5
g6
(g10
S'Yg\x041z\xe8\xf6?'
p106
tp107
Rp108
sg16
g33
ssI35
(dp109
g3
S'EURCAD'
p110
sg5
g6
(g10
S'\xf00\xb3\x83[\xd0\xf6?'
p111
tp112
Rp113
sg16
g33
ssI36
(dp114
g3
S'EURCAD'
p115
sg5
g6
(g10
S'Y\xdcF\x19\xc0\x02\xf7?'
p116
tp117
Rp118
sg16
g33
ssI37
(dp119
g3
S'EURCAD'
p120
sg5
g6
(g10
S'\xa9\x9d\xa2A\xbd\xe5\xf6?'
p121
tp122
Rp123
sg16
g33
ssI38
(dp124
g3
S'EURCAD'
p125
sg5
g6
(g10
S'g\xfc\xb6\xca\x9e\x02\xf7?'
p126
tp127
Rp128
sg16
g33
ssI39
(dp129
g3
S'EURCAD'
p130
sg5
g6
(g10
S'\x89\xa3\x0fM\xc5\x1f\xf7?'
p131
tp132
Rp133
sg16
g33
ssI40
(dp134
g3
S'EURCAD'
p135
sg5
g6
(g10
S'2\x12\xfc\xe7\x90!\xf7?'
p136
tp137
Rp138
sg16
g33
ssI41
(dp139
g3
S'EURCAD'
p140
sg5
g6
(g10
S'\xbc\xb64\x1a\xc40\xf7?'
p141
tp142
Rp143
sg16
g33
ssI44
(dp144
g3
S'EURCAD'
p145
sg5
g6
(g10
S'\x13\xb2\xfc\x90\xcb$\xf7?'
p146
tp147
Rp148
sg16
g33
ssI46
(dp149
g3
S'EURCAD'
p150
sg5
g6
(g10
S'<e\xbc\x0ea\xf7\xf6?'
p151
tp152
Rp153
sg16
g33
ssI47
(dp154
g3
S'EURCAD'
p155
sg5
g6
(g10
S'\xcdrd8\xfb\x05\xf7?'
p156
tp157
Rp158
sg16
g33
ssI50
(dp159
g3
S'EURCAD'
p160
sg5
g6
(g10
S'"\xef\xedB q\xf7?'
p161
tp162
Rp163
sg16
g33
ssI54
(dp164
g3
S'EURCAD'
p165
sg5
g6
(g10
S'R\xfa\x94i\xec\xbf\xf7?'
p166
tp167
Rp168
sg16
g17
ssI55
(dp169
g3
S'EURCAD'
p170
sg5
g6
(g10
S'\x8a\x99;\xe9\xb5\xb6\xf7?'
p171
tp172
Rp173
sg16
g33
ssI56
(dp174
g3
S'EURCAD'
p175
sg5
g6
(g10
S'Wn\x82\x08\xa6\xa7\xf7?'
p176
tp177
Rp178
sg16
g33
ssI57
(dp179
g3
S'EURCAD'
p180
sg5
g6
(g10
S'\xfb\xba\x04\tV\x92\xf7?'
p181
tp182
Rp183
sg16
g33
ssI58
(dp184
g3
S'EURCAD'
p185
sg5
g6
(g10
S'\x16\xcc\xf2Q\xd7\x98\xf7?'
p186
tp187
Rp188
sg16
g33
ssI61
(dp189
g3
S'EURCAD'
p190
sg5
g6
(g10
S'N\xe99\xbe\x9b\x90\xf7?'
p191
tp192
Rp193
sg16
g33
ssI63
(dp194
g3
S'EURCAD'
p195
sg5
g6
(g10
S'\xca\x08\x03\xab\x98\xb4\xf7?'
p196
tp197
Rp198
sg16
g17
ssI66
(dp199
g3
S'EURCAD'
p200
sg5
g6
(g10
S'V\xfd]\xd8\x1d\xc7\xf7?'
p201
tp202
Rp203
sg16
g17
ssI74
(dp204
g3
S'EURCAD'
p205
sg5
g6
(g10
S'\xaa\xd8\xa6\xee\xaa\x87\xf7?'
p206
tp207
Rp208
sg16
g33
ssI76
(dp209
g3
S'EURCAD'
p210
sg5
g6
(g10
S'9b\x16\xa5\xdc\x96\xf7?'
p211
tp212
Rp213
sg16
g17
ssI77
(dp214
g3
S'EURCAD'
p215
sg5
g6
(g10
S'O\xb2\xdcNQ\x92\xf7?'
p216
tp217
Rp218
sg16
g17
ssI78
(dp219
g3
S'EURCAD'
p220
sg5
g6
(g10
S's\xd6\xb4\x16\x06\x9b\xf7?'
p221
tp222
Rp223
sg16
g17
ssI79
(dp224
g3
S'EURCAD'
p225
sg5
g6
(g10
S'\xc8\xc4(\xeb\xc5\xa2\xf7?'
p226
tp227
Rp228
sg16
g17
ssI81
(dp229
g3
S'EURCAD'
p230
sg5
g6
(g10
S'\xef\x0c\xcbB\xafg\xf7?'
p231
tp232
Rp233
sg16
g17
ssI82
(dp234
g3
S'EURCAD'
p235
sg5
g6
(g10
S'eB\xd8\x91\x16z\xf7?'
p236
tp237
Rp238
sg16
g17
ssI83
(dp239
g3
S'EURCAD'
p240
sg5
g6
(g10
S'\xf5\xacy\xd8Hh\xf7?'
p241
tp242
Rp243
sg16
g17
ssI87
(dp244
g3
S'EURCAD'
p245
sg5
g6
(g10
S'\x1dd\xf1\x82n\x1d\xf7?'
p246
tp247
Rp248
sg16
g33
ssI89
(dp249
g3
S'EURCAD'
p250
sg5
g6
(g10
S'\xf2\xb70\x8a\x12\xfb\xf6?'
p251
tp252
Rp253
sg16
g33
ssI90
(dp254
g3
S'EURCAD'
p255
sg5
g6
(g10
S'\x7f}W\xe2c\xf4\xf6?'
p256
tp257
Rp258
sg16
g33
ssI95
(dp259
g3
S'EURCAD'
p260
sg5
g6
(g10
S'\xce\xf6\x0c\xf9\x0f\x0f\xf7?'
p261
tp262
Rp263
sg16
g33
ssI96
(dp264
g3
S'EURCAD'
p265
sg5
g6
(g10
S'\x83\xc6\x98MW*\xf7?'
p266
tp267
Rp268
sg16
g17
ssI99
(dp269
g3
S'EURCAD'
p270
sg5
g6
(g10
S'R\x87\x94\xe6\r&\xf7?'
p271
tp272
Rp273
sg16
g17
ssI101
(dp274
g3
S'EURCAD'
p275
sg5
g6
(g10
S'\xf6\xf8i\xd60\x11\xf7?'
p276
tp277
Rp278
sg16
g33
ssI102
(dp279
g3
S'EURCAD'
p280
sg5
g6
(g10
S'\x9fw\x08\xe8\x9c\x01\xf7?'
p281
tp282
Rp283
sg16
g33
ssI103
(dp284
g3
S'EURCAD'
p285
sg5
g6
(g10
S".M\xc2,|'\xf7?"
p286
tp287
Rp288
sg16
g17
ssI105
(dp289
g3
S'EURCAD'
p290
sg5
g6
(g10
S'\xe3@@\x0bhh\xf7?'
p291
tp292
Rp293
sg16
g17
ssI108
(dp294
g3
S'EURCAD'
p295
sg5
g6
(g10
S'TC 2Z\x12\xf7?'
p296
tp297
Rp298
sg16
g33
ssI114
(dp299
g3
S'EURCAD'
p300
sg5
g6
(g10
S'jjFL\xa7g\xf7?'
p301
tp302
Rp303
sg16
g33
ssI115
(dp304
g3
S'EURCAD'
p305
sg5
g6
(g10
S'\xb8\xea\xa1\xc7j\x7f\xf7?'
p306
tp307
Rp308
sg16
g17
ssI116
(dp309
g3
S'EURCAD'
p310
sg5
g6
(g10
S'\xfb\x1e\xeb\x8c\x82\xa4\xf7?'
p311
tp312
Rp313
sg16
g17
ssI119
(dp314
g3
S'EURCAD'
p315
sg5
g6
(g10
S'e\x9c\x86Y\xd9\x84\xf7?'
p316
tp317
Rp318
sg16
g17
ssI122
(dp319
g3
S'EURCAD'
p320
sg5
g6
(g10
S'h\xb0\x19\xe0l%\xf7?'
p321
tp322
Rp323
sg16
g17
ssI125
(dp324
g3
S'EURCAD'
p325
sg5
g6
(g10
S'\xde~\xb6"\x8e\x7f\xf7?'
p326
tp327
Rp328
sg16
g33
ssI126
(dp329
g3
S'EURCAD'
p330
sg5
g6
(g10
S'\x14!n\\[\xb2\xf7?'
p331
tp332
Rp333
sg16
g33
ssI127
(dp334
g3
S'EURCAD'
p335
sg5
g6
(g10
S'\x93\xe4\x11@\xfe\xae\xf7?'
p336
tp337
Rp338
sg16
g33
ssI128
(dp339
g3
S'EURCAD'
p340
sg5
g6
(g10
S'\xfd\xca%\xdcs\xdb\xf7?'
p341
tp342
Rp343
sg16
g33
ssI132
(dp344
g3
S'EURCAD'
p345
sg5
g6
(g10
S'\xcf#\xd6h<\xc2\xf7?'
p346
tp347
Rp348
sg16
g33
ssI133
(dp349
g3
S'EURCAD'
p350
sg5
g6
(g10
S'\xaf\x88\x8b\xa8\xce\xe1\xf7?'
p351
tp352
Rp353
sg16
g33
ssI139
(dp354
g3
S'EURCAD'
p355
sg5
g6
(g10
S'a\x14\x1c/a\x18\xf8?'
p356
tp357
Rp358
sg16
g17
ssI140
(dp359
g3
S'EURCAD'
p360
sg5
g6
(g10
S'\x06\xd73aK\xe7\xf7?'
p361
tp362
Rp363
sg16
g33
ssI142
(dp364
g3
S'EURCAD'
p365
sg5
g6
(g10
S'\xc2\x03\xbe\xc4\xed\xf1\xf7?'
p366
tp367
Rp368
sg16
g33
ssI143
(dp369
g3
S'EURCAD'
p370
sg5
g6
(g10
S'\xf7\x10\xfb\x8c\xa3\xe1\xf7?'
p371
tp372
Rp373
sg16
g17
ssI144
(dp374
g3
S'EURCAD'
p375
sg5
g6
(g10
S'\xb78\x1e\xfe\x11\xd0\xf7?'
p376
tp377
Rp378
sg16
g33
ssI149
(dp379
g3
S'EURCAD'
p380
sg5
g6
(g10
S'\x1et\xde0\xf1!\xf8?'
p381
tp382
Rp383
sg16
g17
ssI151
(dp384
g3
S'EURCAD'
p385
sg5
g6
(g10
S'C\xc2\xea\x11\x93\t\xf8?'
p386
tp387
Rp388
sg16
g17
ssI152
(dp389
g3
S'EURCAD'
p390
sg5
g6
(g10
S'\x94!\xa4"\xe30\xf8?'
p391
tp392
Rp393
sg16
g17
ssI153
(dp394
g3
S'EURCAD'
p395
sg5
g6
(g10
S'\xca"U\xfa/3\xf8?'
p396
tp397
Rp398
sg16
g33
ssI155
(dp399
g3
S'EURCAD'
p400
sg5
g6
(g10
S'\xa4\x97OQ\x01\x01\xf8?'
p401
tp402
Rp403
sg16
g33
ssI156
(dp404
g3
S'EURCAD'
p405
sg5
g6
(g10
S'\xe3\xf7\xa9WU\xd6\xf7?'
p406
tp407
Rp408
sg16
g33
ssI158
(dp409
g3
S'EURCAD'
p410
sg5
g6
(g10
S'Y<\x08\xf6\xd1\xf7\xf7?'
p411
tp412
Rp413
sg16
g33
ssI159
(dp414
g3
S'EURCAD'
p415
sg5
g6
(g10
S'\xd9\xf9\xdc.\x05\xdf\xf7?'
p416
tp417
Rp418
sg16
g33
ssI161
(dp419
g3
S'EURCAD'
p420
sg5
g6
(g10
S'\x13\xf8\xd8\x1d\x89\x1f\xf8?'
p421
tp422
Rp423
sg16
g33
ssI162
(dp424
g3
S'EURCAD'
p425
sg5
g6
(g10
S'\xdb\r|g\xcb\x02\xf8?'
p426
tp427
Rp428
sg16
g17
ssI163
(dp429
g3
S'EURCAD'
p430
sg5
g6
(g10
S'\xbc\xe8\xc6^I\xfc\xf7?'
p431
tp432
Rp433
sg16
g17
ssI169
(dp434
g3
S'EURCAD'
p435
sg5
g6
(g10
S'\xb7\xcd\xd2\x83}\xf9\xf7?'
p436
tp437
Rp438
sg16
g33
ssI172
(dp439
g3
S'EURCAD'
p440
sg5
g6
(g10
S'D1@\x86\xba\x18\xf8?'
p441
tp442
Rp443
sg16
g33
ssI174
(dp444
g3
S'EURCAD'
p445
sg5
g6
(g10
S'\xbd\xff\xbd\xd2^!\xf8?'
p446
tp447
Rp448
sg16
g33
ssI177
(dp449
g3
S'EURCAD'
p450
sg5
g6
(g10
S'\xa6m:\xbdl7\xf8?'
p451
tp452
Rp453
sg16
g17
ssI178
(dp454
g3
S'EURCAD'
p455
sg5
g6
(g10
S'\xe5\x93\xa7V\x16_\xf8?'
p456
tp457
Rp458
sg16
g17
ssI179
(dp459
g3
S'EURCAD'
p460
sg5
g6
(g10
S'\x16O.\xa3\x9fr\xf8?'
p461
tp462
Rp463
sg16
g33
ssI180
(dp464
g3
S'EURCAD'
p465
sg5
g6
(g10
S')\xda*D{C\xf8?'
p466
tp467
Rp468
sg16
g17
ssI181
(dp469
g3
S'EURCAD'
p470
sg5
g6
(g10
S'u\x0b\x94\xb87\x19\xf8?'
p471
tp472
Rp473
sg16
g33
ssI182
(dp474
g3
S'EURCAD'
p475
sg5
g6
(g10
S'M=\x9f\xd34\n\xf8?'
p476
tp477
Rp478
sg16
g17
ssI183
(dp479
g3
S'EURCAD'
p480
sg5
g6
(g10
S"=\xa0-\x1f8'\xf8?"
p481
tp482
Rp483
sg16
g33
ssI184
(dp484
g3
S'EURCAD'
p485
sg5
g6
(g10
S"'_AKK/\xf8?"
p486
tp487
Rp488
sg16
g33
ssI187
(dp489
g3
S'EURCAD'
p490
sg5
g6
(g10
S'\x1e\xf6\xe1\xa9\x18\x92\xf8?'
p491
tp492
Rp493
sg16
g17
ssI192
(dp494
g3
S'EURCAD'
p495
sg5
g6
(g10
S'(\xce\xfd\x88`\xb8\xf8?'
p496
tp497
Rp498
sg16
g33
ssI193
(dp499
g3
S'EURCAD'
p500
sg5
g6
(g10
S'l\xf0\x1bY#\xb8\xf8?'
p501
tp502
Rp503
sg16
g17
ssI197
(dp504
g3
S'EURCAD'
p505
sg5
g6
(g10
S'\x16\xff\xe1\xec\x9c\xda\xf8?'
p506
tp507
Rp508
sg16
g33
ssI198
(dp509
g3
S'EURCAD'
p510
sg5
g6
(g10
S'\xf0\x894F\x9e\xe3\xf8?'
p511
tp512
Rp513
sg16
g33
ssI199
(dp514
g3
S'EURCAD'
p515
sg5
g6
(g10
S'\xe8\xa8]V\x8d\xd2\xf8?'
p516
tp517
Rp518
sg16
g33
ssI200
(dp519
g3
S'EURCAD'
p520
sg5
g6
(g10
S'\xa1=\xa5\xe4N\xfe\xf8?'
p521
tp522
Rp523
sg16
g33
ssI203
(dp524
g3
S'EURCAD'
p525
sg5
g6
(g10
S'eMF\x19k-\xf9?'
p526
tp527
Rp528
sg16
g33
ssI204
(dp529
g3
S'EURCAD'
p530
sg5
g6
(g10
S't\xaa\x06\xc5\xeb>\xf9?'
p531
tp532
Rp533
sg16
g33
ssI205
(dp534
g3
S'EURCAD'
p535
sg5
g6
(g10
S'z\xber\xbcKc\xf9?'
p536
tp537
Rp538
sg16
g33
ssI211
(dp539
g3
S'EURCAD'
p540
sg5
g6
(g10
S'\xb8\xcc\xd3\xbcaX\xf9?'
p541
tp542
Rp543
sg16
g17
ssI213
(dp544
g3
S'EURCAD'
p545
sg5
g6
(g10
S'\xebb\xbf\xee\x0el\xf9?'
p546
tp547
Rp548
sg16
g33
ssI216
(dp549
g3
S'EURCAD'
p550
sg5
g6
(g10
S'\x0f\x1b\xef0-;\xf9?'
p551
tp552
Rp553
sg16
g17
ssI219
(dp554
g3
S'EURCAD'
p555
sg5
g6
(g10
S'\xd4N\xbf\xfe\xf1\x03\xf9?'
p556
tp557
Rp558
sg16
g33
ssI221
(dp559
g3
S'EURCAD'
p560
sg5
g6
(g10
S'y\xca\xa8Q\xba:\xf9?'
p561
tp562
Rp563
sg16
g33
ssI224
(dp564
g3
S'EURCAD'
p565
sg5
g6
(g10
S'Z\xddVE\x19F\xf9?'
p566
tp567
Rp568
sg16
g17
ssI225
(dp569
g3
S'EURCAD'
p570
sg5
g6
(g10
S'P\x17\xf0\x06\xe9g\xf9?'
p571
tp572
Rp573
sg16
g17
ssI226
(dp574
g3
S'EURCAD'
p575
sg5
g6
(g10
S'\x0f\xa8u\x9d\xe1u\xf9?'
p576
tp577
Rp578
sg16
g17
ssI227
(dp579
g3
S'EURCAD'
p580
sg5
g6
(g10
S'\xd4t\\\xb4lT\xf9?'
p581
tp582
Rp583
sg16
g17
ssI228
(dp584
g3
S'EURCAD'
p585
sg5
g6
(g10
S'L\x84\xc24\xc7>\xf9?'
p586
tp587
Rp588
sg16
g17
ssI231
(dp589
g3
S'EURCAD'
p590
sg5
g6
(g10
S'(\x0f\xcd\xdfCA\xf9?'
p591
tp592
Rp593
sg16
g33
ssI236
(dp594
g3
S'EURCAD'
p595
sg5
g6
(g10
S'B\xed\x1a\xf6\xb2\x03\xf9?'
p596
tp597
Rp598
sg16
g17
ssI237
(dp599
g3
S'EURCAD'
p600
sg5
g6
(g10
S'\xa4\xc4\xb2\x94\x14\xee\xf8?'
p601
tp602
Rp603
sg16
g33
ssI239
(dp604
g3
S'EURCAD'
p605
sg5
g6
(g10
S'\x90\xc8A\x1e\x1f\x1b\xf9?'
p606
tp607
Rp608
sg16
g33
ssI240
(dp609
g3
S'EURCAD'
p610
sg5
g6
(g10
S'uzT\x17\xb1\x05\xf9?'
p611
tp612
Rp613
sg16
g17
ssI243
(dp614
g3
S'EURCAD'
p615
sg5
g6
(g10
S'b\xb6\x95\xeb\x06\x1f\xf9?'
p616
tp617
Rp618
sg16
g33
ssI244
(dp619
g3
S'EURCAD'
p620
sg5
g6
(g10
S'O\xc5\x05D8\x1d\xf9?'
p621
tp622
Rp623
sg16
g17
ssI245
(dp624
g3
S'EURCAD'
p625
sg5
g6
(g10
S'\xeaM\x13@C\xeb\xf8?'
p626
tp627
Rp628
sg16
g33
ssI248
(dp629
g3
S'EURCAD'
p630
sg5
g6
(g10
S"\xe9;/\xd0\xd2'\xf9?"
p631
tp632
Rp633
sg16
g17
ssI250
(dp634
g3
S'EURCAD'
p635
sg5
g6
(g10
S'`P?S\xf5q\xf9?'
p636
tp637
Rp638
sg16
g17
ssI251
(dp639
g3
S'EURCAD'
p640
sg5
g6
(g10
S'L\xd3\xce\xdd\x87Y\xf9?'
p641
tp642
Rp643
sg16
g17
ssI252
(dp644
g3
S'EURCAD'
p645
sg5
g6
(g10
S'\xff_Q\x0bs6\xf9?'
p646
tp647
Rp648
sg16
g17
ssI258
(dp649
g3
S'EURCAD'
p650
sg5
g6
(g10
S'\xc4p\xd2\x10\xbd\xcb\xf8?'
p651
tp652
Rp653
sg16
g33
ssI259
(dp654
g3
S'EURCAD'
p655
sg5
g6
(g10
S'\x0f\x9f\x92?\xd9\xee\xf8?'
p656
tp657
Rp658
sg16
g17
ssI263
(dp659
g3
S'EURCAD'
p660
sg5
g6
(g10
S'T\x89k:|\xd1\xf8?'
p661
tp662
Rp663
sg16
g33
ssI264
(dp664
g3
S'EURCAD'
p665
sg5
g6
(g10
S'\xceC6\xf9\xdd\xd6\xf8?'
p666
tp667
Rp668
sg16
g33
ssI266
(dp669
g3
S'EURCAD'
p670
sg5
g6
(g10
S'_\xf5\x92\xf7\xf7\xf3\xf8?'
p671
tp672
Rp673
sg16
g17
ssI268
(dp674
g3
S'EURCAD'
p675
sg5
g6
(g10
S'\xcb\xc8\x81C\xfc\x17\xf9?'
p676
tp677
Rp678
sg16
g17
ssI269
(dp679
g3
S'EURCAD'
p680
sg5
g6
(g10
S'\xfb\xb1\xfe\x87l\xfe\xf8?'
p681
tp682
Rp683
sg16
g33
ssI273
(dp684
g3
S'EURCAD'
p685
sg5
g6
(g10
S'\xe2\xdf\x91\xbe\x0c\xae\xf8?'
p686
tp687
Rp688
sg16
g33
ssI279
(dp689
g3
S'EURCAD'
p690
sg5
g6
(g10
S'\xd71\xda\xb3%\xad\xf8?'
p691
tp692
Rp693
sg16
g17
ssI282
(dp694
g3
S'EURCAD'
p695
sg5
g6
(g10
S'Yd\x1c\xa9\x99\xaa\xf8?'
p696
tp697
Rp698
sg16
g17
ssI283
(dp699
g3
S'EURCAD'
p700
sg5
g6
(g10
S'YXD\x9cp\xc6\xf8?'
p701
tp702
Rp703
sg16
g33
ssI284
(dp704
g3
S'EURCAD'
p705
sg5
g6
(g10
S'\x8e\x92\x8f\xfa\x87\x87\xf8?'
p706
tp707
Rp708
sg16
g33
ssI285
(dp709
g3
S'EURCAD'
p710
sg5
g6
(g10
S'F\xb1\xd7\x1fY\x9a\xf8?'
p711
tp712
Rp713
sg16
g17
ssI290
(dp714
g3
S'EURCAD'
p715
sg5
g6
(g10
S'\xc3& ,\xa8\x9f\xf8?'
p716
tp717
Rp718
sg16
g17
ssI291
(dp719
g3
S'EURCAD'
p720
sg5
g6
(g10
S'\x16\xbe\xc3G8\x9a\xf8?'
p721
tp722
Rp723
sg16
g17
ssI293
(dp724
g3
S'EURCAD'
p725
sg5
g6
(g10
S'o3\x16\x9a\xdb\x8c\xf8?'
p726
tp727
Rp728
sg16
g17
ssI296
(dp729
g3
S'EURCAD'
p730
sg5
g6
(g10
S'\xdfG\xeab3\x80\xf8?'
p731
tp732
Rp733
sg16
g33
ssI297
(dp734
g3
S'EURCAD'
p735
sg5
g6
(g10
S'#\xe3\x07\xad9c\xf8?'
p736
tp737
Rp738
sg16
g33
ssI298
(dp739
g3
S'EURCAD'
p740
sg5
g6
(g10
S'\xcdu4\xf9V\x89\xf8?'
p741
tp742
Rp743
sg16
g17
ssI300
(dp744
g3
S'EURCAD'
p745
sg5
g6
(g10
S'a\x01\x88S\xc0\x82\xf8?'
p746
tp747
Rp748
sg16
g33
ssI301
(dp749
g3
S'EURCAD'
p750
sg5
g6
(g10
S'd\xabM=+U\xf8?'
p751
tp752
Rp753
sg16
g33
ssI302
(dp754
g3
S'EURCAD'
p755
sg5
g6
(g10
S'\x0f\x0b\x82\xbbfV\xf8?'
p756
tp757
Rp758
sg16
g33
ssI303
(dp759
g3
S'EURCAD'
p760
sg5
g6
(g10
S'e\xab4\n\x1a.\xf8?'
p761
tp762
Rp763
sg16
g17
ssI306
(dp764
g3
S'EURCAD'
p765
sg5
g6
(g10
S'GN\xdd\xd9\x1bo\xf8?'
p766
tp767
Rp768
sg16
g33
ssI307
(dp769
g3
S'EURCAD'
p770
sg5
g6
(g10
S'\x96\x8blN\xb7o\xf8?'
p771
tp772
Rp773
sg16
g33
ssI308
(dp774
g3
S'EURCAD'
p775
sg5
g6
(g10
S'\xf1fl\xcf\xafZ\xf8?'
p776
tp777
Rp778
sg16
g33
ssI312
(dp779
g3
S'EURCAD'
p780
sg5
g6
(g10
S'\xc2\xbc\xe9\xd4r\xc1\xf8?'
p781
tp782
Rp783
sg16
g33
ssI314
(dp784
g3
S'EURCAD'
p785
sg5
g6
(g10
S'u\xeaT\xff\x94!\xf9?'
p786
tp787
Rp788
sg16
g33
ssI315
(dp789
g3
S'EURCAD'
p790
sg5
g6
(g10
S'\x8b\xda\xe1+$G\xf9?'
p791
tp792
Rp793
sg16
g33
ssI316
(dp794
g3
S'EURCAD'
p795
sg5
g6
(g10
S'\x1c\x13\xc1\xb2v]\xf9?'
p796
tp797
Rp798
sg16
g33
ssI318
(dp799
g3
S'EURCAD'
p800
sg5
g6
(g10
S'\xc1R?E\xcci\xf9?'
p801
tp802
Rp803
sg16
g17
ssI321
(dp804
g3
S'EURCAD'
p805
sg5
g6
(g10
S'"\x14\xc4\xea$e\xf9?'
p806
tp807
Rp808
sg16
g33
ssI322
(dp809
g3
S'EURCAD'
p810
sg5
g6
(g10
S'\xe5\xa4\x8b-\xf3K\xf9?'
p811
tp812
Rp813
sg16
g33
ssI331
(dp814
g3
S'EURCAD'
p815
sg5
g6
(g10
S'>\x1a\xd9w\x10q\xf9?'
p816
tp817
Rp818
sg16
g17
ssI332
(dp819
g3
S'EURCAD'
p820
sg5
g6
(g10
S'\xc7\x8b\xf7m\xf2Y\xf9?'
p821
tp822
Rp823
sg16
g33
ssI333
(dp824
g3
S'EURCAD'
p825
sg5
g6
(g10
S'v\xf4\xd7guT\xf9?'
p826
tp827
Rp828
sg16
g17
ssI334
(dp829
g3
S'EURCAD'
p830
sg5
g6
(g10
S'J\x89\x1e\x80)X\xf9?'
p831
tp832
Rp833
sg16
g17
ssI336
(dp834
g3
S'EURCAD'
p835
sg5
g6
(g10
S'M]\x87\xf4\x91<\xf9?'
p836
tp837
Rp838
sg16
g17
ssI337
(dp839
g3
S'EURCAD'
p840
sg5
g6
(g10
S'\xa0a\xeeV\xa9;\xf9?'
p841
tp842
Rp843
sg16
g17
ssI338
(dp844
g3
S'EURCAD'
p845
sg5
g6
(g10
S'\xc3\\\xa1\r\xef\t\xf9?'
p846
tp847
Rp848
sg16
g17
ssI339
(dp849
g3
S'EURCAD'
p850
sg5
g6
(g10
S'\xee\x16\x04\x17\x06\xf9\xf8?'
p851
tp852
Rp853
sg16
g17
ssI342
(dp854
g3
S'EURCAD'
p855
sg5
g6
(g10
S'\xdd\xc5\xc9\x83C\x91\xf8?'
p856
tp857
Rp858
sg16
g33
ssI344
(dp859
g3
S'EURCAD'
p860
sg5
g6
(g10
S'\x95\xd2\xc0 ,\x93\xf8?'
p861
tp862
Rp863
sg16
g33
ssI349
(dp864
g3
S'EURCAD'
p865
sg5
g6
(g10
S';\xb86M\xc8\x93\xf8?'
p866
tp867
Rp868
sg16
g17
ssI351
(dp869
g3
S'EURCAD'
p870
sg5
g6
(g10
S'\x8d\xf8\xcc\x8c\xc6\x82\xf8?'
p871
tp872
Rp873
sg16
g33
ssI353
(dp874
g3
S'EURCAD'
p875
sg5
g6
(g10
S'\x95^ilgo\xf8?'
p876
tp877
Rp878
sg16
g33
ssI355
(dp879
g3
S'EURCAD'
p880
sg5
g6
(g10
S'8YG\xd2\xa9\xdc\xf8?'
p881
tp882
Rp883
sg16
g33
ssI358
(dp884
g3
S'EURCAD'
p885
sg5
g6
(g10
S'\xbc1,\xd9\x92\xfb\xf8?'
p886
tp887
Rp888
sg16
g33
ssI359
(dp889
g3
S'EURCAD'
p890
sg5
g6
(g10
S'\xe8\x97\x13\xbca\xe9\xf8?'
p891
tp892
Rp893
sg16
g33
ssI360
(dp894
g3
S'EURCAD'
p895
sg5
g6
(g10
S'\xe4\xb5\xf2\xeb`#\xf9?'
p896
tp897
Rp898
sg16
g33
ssI366
(dp899
g3
S'EURCAD'
p900
sg5
g6
(g10
S'B[\x034\xd4<\xf9?'
p901
tp902
Rp903
sg16
g33
ssI369
(dp904
g3
S'EURCAD'
p905
sg5
g6
(g10
S'/!.|\x07(\xf9?'
p906
tp907
Rp908
sg16
g17
ssI372
(dp909
g3
S'EURCAD'
p910
sg5
g6
(g10
S'\xe7\xf6\x02\xfe8+\xf9?'
p911
tp912
Rp913
sg16
g33
ssI373
(dp914
g3
S'EURCAD'
p915
sg5
g6
(g10
S'B?(OQH\xf9?'
p916
tp917
Rp918
sg16
g33
ssI377
(dp919
g3
S'EURCAD'
p920
sg5
g6
(g10
S'\x8d\xe4M?\xd3n\xf9?'
p921
tp922
Rp923
sg16
g17
ssI379
(dp924
g3
S'EURCAD'
p925
sg5
g6
(g10
S'\xfc!f*\x8cv\xf9?'
p926
tp927
Rp928
sg16
g17
ssI380
(dp929
g3
S'EURCAD'
p930
sg5
g6
(g10
S'2Pz}\xe34\xf9?'
p931
tp932
Rp933
sg16
g17
ssI381
(dp934
g3
S'EURCAD'
p935
sg5
g6
(g10
S'\x91\xd5\x842`\xf6\xf8?'
p936
tp937
Rp938
sg16
g33
ssI383
(dp939
g3
S'EURCAD'
p940
sg5
g6
(g10
S'\x13\x9dd\xd8`\xe0\xf8?'
p941
tp942
Rp943
sg16
g33
ssI387
(dp944
g3
S'EURCAD'
p945
sg5
g6
(g10
S'\xd5P\x8e\xad\x88k\xf8?'
p946
tp947
Rp948
sg16
g17
ssI388
(dp949
g3
S'EURCAD'
p950
sg5
g6
(g10
S'\xfcjd\xc9\xc58\xf8?'
p951
tp952
Rp953
sg16
g17
ssI389
(dp954
g3
S'EURCAD'
p955
sg5
g6
(g10
S'\x89\xc6\x9cWu2\xf8?'
p956
tp957
Rp958
sg16
g33
ssI391
(dp959
g3
S'EURCAD'
p960
sg5
g6
(g10
S'\xd19}\xac-E\xf8?'
p961
tp962
Rp963
sg16
g17
ssI393
(dp964
g3
S'EURCAD'
p965
sg5
g6
(g10
S'\x0fK\xe1\xc1\xb5)\xf8?'
p966
tp967
Rp968
sg16
g33
ssI394
(dp969
g3
S'EURCAD'
p970
sg5
g6
(g10
S'u\x18\x9f\xf8\x06X\xf8?'
p971
tp972
Rp973
sg16
g33
ssI395
(dp974
g3
S'EURCAD'
p975
sg5
g6
(g10
S'\x04g\xa6\xf9k\x8b\xf8?'
p976
tp977
Rp978
sg16
g17
ssI396
(dp979
g3
S'EURCAD'
p980
sg5
g6
(g10
S',*3P}x\xf8?'
p981
tp982
Rp983
sg16
g33
ssI398
(dp984
g3
S'EURCAD'
p985
sg5
g6
(g10
S'\xfa\x15\x99\xc7u}\xf8?'
p986
tp987
Rp988
sg16
g33
ssI399
(dp989
g3
S'EURCAD'
p990
sg5
g6
(g10
S"\x17\xaa'>'v\xf8?"
p991
tp992
Rp993
sg16
g33
ssI400
(dp994
g3
S'EURCAD'
p995
sg5
g6
(g10
S'\x1e\x06m\xd9\xf8\xb8\xf8?'
p996
tp997
Rp998
sg16
g33
ssI405
(dp999
g3
S'EURCAD'
p1000
sg5
g6
(g10
S'\xc8\xef\xb1\xe1O\x0f\xf9?'
p1001
tp1002
Rp1003
sg16
g17
ssI406
(dp1004
g3
S'EURCAD'
p1005
sg5
g6
(g10
S'\xadm\x8a\x1e\xb5\xdc\xf8?'
p1006
tp1007
Rp1008
sg16
g17
ssI407
(dp1009
g3
S'EURCAD'
p1010
sg5
g6
(g10
S'\xe2S| \x1b\xbb\xf8?'
p1011
tp1012
Rp1013
sg16
g17
ssI408
(dp1014
g3
S'EURCAD'
p1015
sg5
g6
(g10
S'\xcdC\x02\x9fb\x8e\xf8?'
p1016
tp1017
Rp1018
sg16
g17
ssI409
(dp1019
g3
S'EURCAD'
p1020
sg5
g6
(g10
S"'\xc5\tc\xeb\x80\xf8?"
p1021
tp1022
Rp1023
sg16
g33
ssI410
(dp1024
g3
S'EURCAD'
p1025
sg5
g6
(g10
S'o-\xac\x9a\xcb\x82\xf8?'
p1026
tp1027
Rp1028
sg16
g33
ssI416
(dp1029
g3
S'EURCAD'
p1030
sg5
g6
(g10
S'L\xf9\t\xd9\xb0\xc8\xf8?'
p1031
tp1032
Rp1033
sg16
g17
ssI417
(dp1034
g3
S'EURCAD'
p1035
sg5
g6
(g10
S'b\xedI\xdc\r\x9b\xf8?'
p1036
tp1037
Rp1038
sg16
g17
ssI420
(dp1039
g3
S'EURCAD'
p1040
sg5
g6
(g10
S'\x13\x9e\xdc\xa5\xaa\x87\xf8?'
p1041
tp1042
Rp1043
sg16
g17
ssI421
(dp1044
g3
S'EURCAD'
p1045
sg5
g6
(g10
S'\xaf\xdd`\xd7\x94\x91\xf8?'
p1046
tp1047
Rp1048
sg16
g33
ssI422
(dp1049
g3
S'EURCAD'
p1050
sg5
g6
(g10
S'\x1fR\xe7\xb1\x92\x83\xf8?'
p1051
tp1052
Rp1053
sg16
g17
ssI423
(dp1054
g3
S'EURCAD'
p1055
sg5
g6
(g10
S'\xaf?\xc5m\x8b\x9c\xf8?'
p1056
tp1057
Rp1058
sg16
g17
ssI426
(dp1059
g3
S'EURCAD'
p1060
sg5
g6
(g10
S'\x8e\x9b4]\xe7H\xf8?'
p1061
tp1062
Rp1063
sg16
g17
ssI427
(dp1064
g3
S'EURCAD'
p1065
sg5
g6
(g10
S'\xb3\xa5b\xc0\xd5\x1f\xf8?'
p1066
tp1067
Rp1068
sg16
g17
ssI428
(dp1069
g3
S'EURCAD'
p1070
sg5
g6
(g10
S'\x98\xac\x1d\x86\xce\xfb\xf7?'
p1071
tp1072
Rp1073
sg16
g33
ssI429
(dp1074
g3
S'EURCAD'
p1075
sg5
g6
(g10
S"\xed\x15\xce\xc8\x7f'\xf8?"
p1076
tp1077
Rp1078
sg16
g33
ssI430
(dp1079
g3
S'EURCAD'
p1080
sg5
g6
(g10
S'8\xce\xb5J\xf9-\xf8?'
p1081
tp1082
Rp1083
sg16
g17
ssI432
(dp1084
g3
S'EURCAD'
p1085
sg5
g6
(g10
S'\x9dkoA\x94\x19\xf8?'
p1086
tp1087
Rp1088
sg16
g33
ssI434
(dp1089
g3
S'EURCAD'
p1090
sg5
g6
(g10
S'\xf4\xa4yR\x0c1\xf8?'
p1091
tp1092
Rp1093
sg16
g33
ssI436
(dp1094
g3
S'EURCAD'
p1095
sg5
g6
(g10
S'\t\xeb4\xd8Gx\xf8?'
p1096
tp1097
Rp1098
sg16
g33
ssI438
(dp1099
g3
S'EURCAD'
p1100
sg5
g6
(g10
S'6\x95Z\xda\xfeB\xf8?'
p1101
tp1102
Rp1103
sg16
g33
ssI440
(dp1104
g3
S'EURCAD'
p1105
sg5
g6
(g10
S'\xbb\x18\xd5\xef\xbe\x8d\xf8?'
p1106
tp1107
Rp1108
sg16
g17
ssI441
(dp1109
g3
S'EURCAD'
p1110
sg5
g6
(g10
S'\xd9\x01\x1e\xab\x96\x97\xf8?'
p1111
tp1112
Rp1113
sg16
g17
ssI442
(dp1114
g3
S'EURCAD'
p1115
sg5
g6
(g10
S'n+\xc6\x05\xb5\x9f\xf8?'
p1116
tp1117
Rp1118
sg16
g33
ssI447
(dp1119
g3
S'EURCAD'
p1120
sg5
g6
(g10
S'\xc4\x18$6\x9c\x0f\xf9?'
p1121
tp1122
Rp1123
sg16
g17
ssI449
(dp1124
g3
S'EURCAD'
p1125
sg5
g6
(g10
S'\x0f\xbe&\xd5\xb3\x0e\xf9?'
p1126
tp1127
Rp1128
sg16
g17
ssI452
(dp1129
g3
S'EURCAD'
p1130
sg5
g6
(g10
S'N\xa7+\xf9\xa9\xb6\xf8?'
p1131
tp1132
Rp1133
sg16
g33
ssI453
(dp1134
g3
S'EURCAD'
p1135
sg5
g6
(g10
S'\x86\xc5 C\x19\xd1\xf8?'
p1136
tp1137
Rp1138
sg16
g17
ssI454
(dp1139
g3
S'EURCAD'
p1140
sg5
g6
(g10
S'^\x9f\xd2\xa3r\xde\xf8?'
p1141
tp1142
Rp1143
sg16
g17
ssI455
(dp1144
g3
S'EURCAD'
p1145
sg5
g6
(g10
S'\xea\xe6\xfe8[\xb2\xf8?'
p1146
tp1147
Rp1148
sg16
g33
ssI458
(dp1149
g3
S'EURCAD'
p1150
sg5
g6
(g10
S'c\xb2\xbfS$\xc3\xf8?'
p1151
tp1152
Rp1153
sg16
g17
ssI459
(dp1154
g3
S'EURCAD'
p1155
sg5
g6
(g10
S'\xcc\x9a\xbfj[\xd4\xf8?'
p1156
tp1157
Rp1158
sg16
g33
ssI464
(dp1159
g3
S'EURCAD'
p1160
sg5
g6
(g10
S'\xff\xf1\xc7\xce\x13\xbf\xf8?'
p1161
tp1162
Rp1163
sg16
g17
ssI469
(dp1164
g3
S'EURCAD'
p1165
sg5
g6
(g10
S'\xde\xe0\xe2\xb8\x86\xb4\xf8?'
p1166
tp1167
Rp1168
sg16
g17
ssI470
(dp1169
g3
S'EURCAD'
p1170
sg5
g6
(g10
S'\xafl\xd7\x005L\xf8?'
p1171
tp1172
Rp1173
sg16
g17
ssI471
(dp1174
g3
S'EURCAD'
p1175
sg5
g6
(g10
S'\x8d\x02\xb3\xcd\xfa>\xf8?'
p1176
tp1177
Rp1178
sg16
g33
ssI473
(dp1179
g3
S'EURCAD'
p1180
sg5
g6
(g10
S'E^d)\x98\x16\xf8?'
p1181
tp1182
Rp1183
sg16
g33
ssI474
(dp1184
g3
S'EURCAD'
p1185
sg5
g6
(g10
S'2\x98\x9f\xec\x7f9\xf8?'
p1186
tp1187
Rp1188
sg16
g33
ssI475
(dp1189
g3
S'EURCAD'
p1190
sg5
g6
(g10
S'\x04\xc1\xe9?\x10N\xf8?'
p1191
tp1192
Rp1193
sg16
g17
ssI476
(dp1194
g3
S'EURCAD'
p1195
sg5
g6
(g10
S'7\x95\x04\\UP\xf8?'
p1196
tp1197
Rp1198
sg16
g33
ssI479
(dp1199
g3
S'EURCAD'
p1200
sg5
g6
(g10
S'\xaao\xa8\xa6\x87\xbe\xf8?'
p1201
tp1202
Rp1203
sg16
g33
ssI481
(dp1204
g3
S'EURCAD'
p1205
sg5
g6
(g10
S'\xf8\xc4\xc1\xde\r\xb0\xf8?'
p1206
tp1207
Rp1208
sg16
g33
ssI482
(dp1209
g3
S'EURCAD'
p1210
sg5
g6
(g10
S'\xc2\x86\xe4\xfa\x14\xaf\xf8?'
p1211
tp1212
Rp1213
sg16
g17
ssI483
(dp1214
g3
S'EURCAD'
p1215
sg5
g6
(g10
S'\xa4\xd3lg:\xa3\xf8?'
p1216
tp1217
Rp1218
sg16
g17
ssI486
(dp1219
g3
S'EURCAD'
p1220
sg5
g6
(g10
S'FfD\x1c\xc6\xc0\xf8?'
p1221
tp1222
Rp1223
sg16
g33
ssI489
(dp1224
g3
S'EURCAD'
p1225
sg5
g6
(g10
S'}&\x15jL\xcb\xf8?'
p1226
tp1227
Rp1228
sg16
g33
ssI490
(dp1229
g3
S'EURCAD'
p1230
sg5
g6
(g10
S'\x13\x12\x13cT\x99\xf8?'
p1231
tp1232
Rp1233
sg16
g33
ssI491
(dp1234
g3
S'EURCAD'
p1235
sg5
g6
(g10
S'\xa9\x03T[\x02\xc6\xf8?'
p1236
tp1237
Rp1238
sg16
g33
ssI493
(dp1239
g3
S'EURCAD'
p1240
sg5
g6
(g10
S'X\x12\x03\xb6\xff\xe6\xf8?'
p1241
tp1242
Rp1243
sg16
g17
ssI498
(dp1244
g3
S'EURCAD'
p1245
sg5
g6
(g10
S'm\xd8\\\xad\xd5\x11\xf9?'
p1246
tp1247
Rp1248
sg16
g33
ssI499
(dp1249
g3
S'EURCAD'
p1250
sg5
g6
(g10
S'\r\xad\x90Mx\x15\xf9?'
p1251
tp1252
Rp1253
sg16
g33
ssI502
(dp1254
g3
S'EURCAD'
p1255
sg5
g6
(g10
S'\xcb%!\xbb\xc6\x0f\xf9?'
p1256
tp1257
Rp1258
sg16
g33
ssI506
(dp1259
g3
S'EURCAD'
p1260
sg5
g6
(g10
S'\xbb\xd1\xa7\xb5\xac(\xf9?'
p1261
tp1262
Rp1263
sg16
g33
ssI510
(dp1264
g3
S'EURCAD'
p1265
sg5
g6
(g10
S'4\xec/\xf7\xbc;\xf9?'
p1266
tp1267
Rp1268
sg16
g33
ssI511
(dp1269
g3
S'EURCAD'
p1270
sg5
g6
(g10
S'q\xf3\xa7]\x9e5\xf9?'
p1271
tp1272
Rp1273
sg16
g33
ssI512
(dp1274
g3
S'EURCAD'
p1275
sg5
g6
(g10
S'\xd8t\xa8Dy<\xf9?'
p1276
tp1277
Rp1278
sg16
g33
ssI514
(dp1279
g3
S'EURCAD'
p1280
sg5
g6
(g10
S'v\x84<e\x92l\xf9?'
p1281
tp1282
Rp1283
sg16
g33
ssI515
(dp1284
g3
S'EURCAD'
p1285
sg5
g6
(g10
S'0\x98\xdd\xf8\x0fq\xf9?'
p1286
tp1287
Rp1288
sg16
g33
ssI516
(dp1289
g3
S'EURCAD'
p1290
sg5
g6
(g10
S'\x87\x86\x8bE\xb9r\xf9?'
p1291
tp1292
Rp1293
sg16
g33
ssI518
(dp1294
g3
S'EURCAD'
p1295
sg5
g6
(g10
S'\x92&\x1e\xf1\xc3\xac\xf9?'
p1296
tp1297
Rp1298
sg16
g33
ssI520
(dp1299
g3
S'EURCAD'
p1300
sg5
g6
(g10
S'\xc6\xde\xdc\xff<\xa2\xf9?'
p1301
tp1302
Rp1303
sg16
g17
ssI522
(dp1304
g3
S'EURCAD'
p1305
sg5
g6
(g10
S'\x13fp\xbe\xd8\x9f\xf9?'
p1306
tp1307
Rp1308
sg16
g17
ssI524
(dp1309
g3
S'EURCAD'
p1310
sg5
g6
(g10
S'4[\x93\xa4\xc2\x83\xf9?'
p1311
tp1312
Rp1313
sg16
g17
ssI526
(dp1314
g3
S'EURCAD'
p1315
sg5
g6
(g10
S'\xf2\xbe\x0b}\x03^\xf9?'
p1316
tp1317
Rp1318
sg16
g17
ssI527
(dp1319
g3
S'EURCAD'
p1320
sg5
g6
(g10
S'\xfd\xbb\xa1\x1a\x97m\xf9?'
p1321
tp1322
Rp1323
sg16
g33
ssI528
(dp1324
g3
S'EURCAD'
p1325
sg5
g6
(g10
S'\x85\xb9p\x83\x19V\xf9?'
p1326
tp1327
Rp1328
sg16
g17
ssI529
(dp1329
g3
S'EURCAD'
p1330
sg5
g6
(g10
S'\x80\xfb>{\xads\xf9?'
p1331
tp1332
Rp1333
sg16
g17
ssI532
(dp1334
g3
S'EURCAD'
p1335
sg5
g6
(g10
S'3D\x8d\xd4P7\xf9?'
p1336
tp1337
Rp1338
sg16
g33
ssI533
(dp1339
g3
S'EURCAD'
p1340
sg5
g6
(g10
S'PBSO\xe7\xea\xf8?'
p1341
tp1342
Rp1343
sg16
g17
ssI535
(dp1344
g3
S'EURCAD'
p1345
sg5
g6
(g10
S'q9\x84|1\xe9\xf8?'
p1346
tp1347
Rp1348
sg16
g17
ssI539
(dp1349
g3
S'EURCAD'
p1350
sg5
g6
(g10
S'1\x11\xd9\xa9W\xe9\xf8?'
p1351
tp1352
Rp1353
sg16
g17
ssI540
(dp1354
g3
S'EURCAD'
p1355
sg5
g6
(g10
S"\x16'\xe1\x07*\xd9\xf8?"
p1356
tp1357
Rp1358
sg16
g17
ssI541
(dp1359
g3
S'EURCAD'
p1360
sg5
g6
(g10
S'-\xd4Z\xdb\xec\xb7\xf8?'
p1361
tp1362
Rp1363
sg16
g33
ssI548
(dp1364
g3
S'EURCAD'
p1365
sg5
g6
(g10
S'\xf4[\x82\x0b\x16\xe8\xf8?'
p1366
tp1367
Rp1368
sg16
g33
ssI550
(dp1369
g3
S'EURCAD'
p1370
sg5
g6
(g10
S'\x93\x81>\xe6\xcf\x14\xf9?'
p1371
tp1372
Rp1373
sg16
g33
ssI556
(dp1374
g3
S'EURCAD'
p1375
sg5
g6
(g10
S'\xd5\x0fu\x7f\xe5C\xf9?'
p1376
tp1377
Rp1378
sg16
g33
ssI558
(dp1379
g3
S'EURCAD'
p1380
sg5
g6
(g10
S'\xaa\x06\x05\x9d\xe0S\xf9?'
p1381
tp1382
Rp1383
sg16
g17
ssI559
(dp1384
g3
S'EURCAD'
p1385
sg5
g6
(g10
S's\x84\xa6\xb5Ps\xf9?'
p1386
tp1387
Rp1388
sg16
g33
ssI560
(dp1389
g3
S'EURCAD'
p1390
sg5
g6
(g10
S'8\xa9\xa8T\xe4\xb4\xf9?'
p1391
tp1392
Rp1393
sg16
g17
ssI561
(dp1394
g3
S'EURCAD'
p1395
sg5
g6
(g10
S'\x93\x89\xd6\xf3\x1dr\xf9?'
p1396
tp1397
Rp1398
sg16
g17
ssI567
(dp1399
g3
S'EURCAD'
p1400
sg5
g6
(g10
S'.\xfd\x7f\x01\x8fa\xf9?'
p1401
tp1402
Rp1403
sg16
g17
ssI568
(dp1404
g3
S'EURCAD'
p1405
sg5
g6
(g10
S'\xeb\xc9\xef\xdc\xc5\x9a\xf9?'
p1406
tp1407
Rp1408
sg16
g33
ssI569
(dp1409
g3
S'EURCAD'
p1410
sg5
g6
(g10
S'He\xcePk\xc0\xf9?'
p1411
tp1412
Rp1413
sg16
g17
ssI571
(dp1414
g3
S'EURCAD'
p1415
sg5
g6
(g10
S'0\x13\xadB\xfc\x96\xf9?'
p1416
tp1417
Rp1418
sg16
g17
ssI575
(dp1419
g3
S'EURCAD'
p1420
sg5
g6
(g10
S'jR\xc2\xebG\x90\xf9?'
p1421
tp1422
Rp1423
sg16
g33
ssI576
(dp1424
g3
S'EURCAD'
p1425
sg5
g6
(g10
S'1\xb6\xb3M\xf2s\xf9?'
p1426
tp1427
Rp1428
sg16
g33
ssI577
(dp1429
g3
S'EURCAD'
p1430
sg5
g6
(g10
S'\xac\x1aj\xa1B\x7f\xf9?'
p1431
tp1432
Rp1433
sg16
g33
ssI579
(dp1434
g3
S'EURCAD'
p1435
sg5
g6
(g10
S'\xf0\xf3\xd2\xf5\xdf\xa1\xf9?'
p1436
tp1437
Rp1438
sg16
g17
ssI580
(dp1439
g3
S'EURCAD'
p1440
sg5
g6
(g10
S'\xd3\xb0\x90u\xfd\xd7\xf9?'
p1441
tp1442
Rp1443
sg16
g17
ssI583
(dp1444
g3
S'EURCAD'
p1445
sg5
g6
(g10
S'\x18\xe8\xc8\xd8H\xc3\xf9?'
p1446
tp1447
Rp1448
sg16
g33
ssI585
(dp1449
g3
S'EURCAD'
p1450
sg5
g6
(g10
S'M\xab\x82\x06s\r\xfa?'
p1451
tp1452
Rp1453
sg16
g33
ssI586
(dp1454
g3
S'EURCAD'
p1455
sg5
g6
(g10
S'T\xbf\xf7\xf1\x99\xd1\xf9?'
p1456
tp1457
Rp1458
sg16
g17
ssI587
(dp1459
g3
S'EURCAD'
p1460
sg5
g6
(g10
S'K\x8bP\xd2\xbc\xda\xf9?'
p1461
tp1462
Rp1463
sg16
g33
ssI589
(dp1464
g3
S'EURCAD'
p1465
sg5
g6
(g10
S'\xa3\xf5\xde\x94\xd7\xf2\xf9?'
p1466
tp1467
Rp1468
sg16
g33
ssI590
(dp1469
g3
S'EURCAD'
p1470
sg5
g6
(g10
S'\xf3\ns\xa0\xb5(\xfa?'
p1471
tp1472
Rp1473
sg16
g33
ssI591
(dp1474
g3
S'EURCAD'
p1475
sg5
g6
(g10
S'\xec!\xd9\x12.$\xfa?'
p1476
tp1477
Rp1478
sg16
g17
ssI594
(dp1479
g3
S'EURCAD'
p1480
sg5
g6
(g10
S'\xab\x85\x8b\xb1%J\xfa?'
p1481
tp1482
Rp1483
sg16
g33
ssI595
(dp1484
g3
S'EURCAD'
p1485
sg5
g6
(g10
S'\x81L\xfcB\xe6\x8a\xfa?'
p1486
tp1487
Rp1488
sg16
g17
ssI596
(dp1489
g3
S'EURCAD'
p1490
sg5
g6
(g10
S'\x8d4\xebJL\x85\xfa?'
p1491
tp1492
Rp1493
sg16
g17
ssI597
(dp1494
g3
S'EURCAD'
p1495
sg5
g6
(g10
S'\x8d2~\x17\x15q\xfa?'
p1496
tp1497
Rp1498
sg16
g17
ssI598
(dp1499
g3
S'EURCAD'
p1500
sg5
g6
(g10
S'}\xfa_\x01\x91\x81\xfa?'
p1501
tp1502
Rp1503
sg16
g17
ssI602
(dp1504
g3
S'EURCAD'
p1505
sg5
g6
(g10
S'\x95J[\x08\xccR\xfa?'
p1506
tp1507
Rp1508
sg16
g33
ssI603
(dp1509
g3
S'EURCAD'
p1510
sg5
g6
(g10
S'V\xa9\xdc!\x80q\xfa?'
p1511
tp1512
Rp1513
sg16
g33
ssI606
(dp1514
g3
S'EURCAD'
p1515
sg5
g6
(g10
S'\xf0?\x1a\xa4\xea\xaa\xfa?'
p1516
tp1517
Rp1518
sg16
g33
ssI607
(dp1519
g3
S'EURCAD'
p1520
sg5
g6
(g10
S'6z\x06\x84z\x98\xfa?'
p1521
tp1522
Rp1523
sg16
g17
ssI608
(dp1524
g3
S'EURCAD'
p1525
sg5
g6
(g10
S'\xc5\xe0\xae\x90\xfa\xb0\xfa?'
p1526
tp1527
Rp1528
sg16
g17
ssI610
(dp1529
g3
S'EURCAD'
p1530
sg5
g6
(g10
S'o\x8e.d9\x02\xfb?'
p1531
tp1532
Rp1533
sg16
g17
ssI611
(dp1534
g3
S'EURCAD'
p1535
sg5
g6
(g10
S'\xe9\x83\xc9\xf2u\x02\xfb?'
p1536
tp1537
Rp1538
sg16
g17
ssI613
(dp1539
g3
S'EURCAD'
p1540
sg5
g6
(g10
S'\x85\xc1I\xa2>\xcc\xfa?'
p1541
tp1542
Rp1543
sg16
g17
ssI615
(dp1544
g3
S'EURCAD'
p1545
sg5
g6
(g10
S'fh\xe2\xed\xd3\x85\xfa?'
p1546
tp1547
Rp1548
sg16
g17
ssI620
(dp1549
g3
S'EURCAD'
p1550
sg5
g6
(g10
S'\xca\xdf\x0bZ\x1a\x0c\xfa?'
p1551
tp1552
Rp1553
sg16
g17
ssI621
(dp1554
g3
S'EURCAD'
p1555
sg5
g6
(g10
S'\x1do\xdd ]\xdd\xf9?'
p1556
tp1557
Rp1558
sg16
g17
ssI625
(dp1559
g3
S'EURCAD'
p1560
sg5
g6
(g10
S'.\xc8\x0c\xb5\xa5a\xf9?'
p1561
tp1562
Rp1563
sg16
g17
ssI626
(dp1564
g3
S'EURCAD'
p1565
sg5
g6
(g10
S'\xa3Q\x9a\xb5eX\xf9?'
p1566
tp1567
Rp1568
sg16
g17
ssI627
(dp1569
g3
S'EURCAD'
p1570
sg5
g6
(g10
S'\xcb\xa1&Z\x81\x1c\xf9?'
p1571
tp1572
Rp1573
sg16
g33
ssI628
(dp1574
g3
S'EURCAD'
p1575
sg5
g6
(g10
S'\xab\x87\xd3\xa5\x11\x00\xf9?'
p1576
tp1577
Rp1578
sg16
g17
ssI629
(dp1579
g3
S'EURCAD'
p1580
sg5
g6
(g10
S'\x84\xaf\xed\xef\x93\xd2\xf8?'
p1581
tp1582
Rp1583
sg16
g33
ssI630
(dp1584
g3
S'EURCAD'
p1585
sg5
g6
(g10
S'>o\xbc\xdb\xa3\xae\xf8?'
p1586
tp1587
Rp1588
sg16
g33
ssI631
(dp1589
g3
S'EURCAD'
p1590
sg5
g6
(g10
S'\xec*\xf62\x8d\xf1\xf8?'
p1591
tp1592
Rp1593
sg16
g17
ssI632
(dp1594
g3
S'EURCAD'
p1595
sg5
g6
(g10
S'\x83\xee.T\xd9\xd1\xf8?'
p1596
tp1597
Rp1598
sg16
g17
ssI633
(dp1599
g3
S'EURCAD'
p1600
sg5
g6
(g10
S'C\x18\x84\xc3c\xab\xf8?'
p1601
tp1602
Rp1603
sg16
g17
ssI635
(dp1604
g3
S'EURCAD'
p1605
sg5
g6
(g10
S'\x93\x9b)\xa6\xca\xca\xf8?'
p1606
tp1607
Rp1608
sg16
g17
ssI636
(dp1609
g3
S'EURCAD'
p1610
sg5
g6
(g10
S'P;\x96\xa1\xaf\xad\xf8?'
p1611
tp1612
Rp1613
sg16
g33
ssI640
(dp1614
g3
S'EURCAD'
p1615
sg5
g6
(g10
S'/%\x92\xcf\xb9\xa3\xf8?'
p1616
tp1617
Rp1618
sg16
g33
ssI644
(dp1619
g3
S'EURCAD'
p1620
sg5
g6
(g10
S'\xea\xbc\xb2_\xb1|\xf8?'
p1621
tp1622
Rp1623
sg16
g17
ssI646
(dp1624
g3
S'EURCAD'
p1625
sg5
g6
(g10
S'\xac\xf6O\xfe\\\x87\xf8?'
p1626
tp1627
Rp1628
sg16
g17
ssI647
(dp1629
g3
S'EURCAD'
p1630
sg5
g6
(g10
S'\x95\x9cp\x04\x05A\xf8?'
p1631
tp1632
Rp1633
sg16
g33
ssI650
(dp1634
g3
S'EURCAD'
p1635
sg5
g6
(g10
S'v#\x83s\x8d}\xf8?'
p1636
tp1637
Rp1638
sg16
g33
ssI651
(dp1639
g3
S'EURCAD'
p1640
sg5
g6
(g10
S'\xb3A\x1dv\x80w\xf8?'
p1641
tp1642
Rp1643
sg16
g33
ssI655
(dp1644
g3
S'EURCAD'
p1645
sg5
g6
(g10
S'<\xcd7\xa1R&\xf8?'
p1646
tp1647
Rp1648
sg16
g33
ssI658
(dp1649
g3
S'EURCAD'
p1650
sg5
g6
(g10
S'<PKK\xf8\x08\xf8?'
p1651
tp1652
Rp1653
sg16
g17
ssI659
(dp1654
g3
S'EURCAD'
p1655
sg5
g6
(g10
S'!\xc0\x98\xe2\xbd\x0b\xf8?'
p1656
tp1657
Rp1658
sg16
g17
ssI665
(dp1659
g3
S'EURCAD'
p1660
sg5
g6
(g10
S'\xee\xaa\x0f\xb0M\xa3\xf7?'
p1661
tp1662
Rp1663
sg16
g17
ssI666
(dp1664
g3
S'EURCAD'
p1665
sg5
g6
(g10
S'\xd8k\xa53u\xa5\xf7?'
p1666
tp1667
Rp1668
sg16
g17
ssI667
(dp1669
g3
S'EURCAD'
p1670
sg5
g6
(g10
S'bf\x83r\x83\xbf\xf7?'
p1671
tp1672
Rp1673
sg16
g33
ssI670
(dp1674
g3
S'EURCAD'
p1675
sg5
g6
(g10
S'\xa4\xab1n\x02\x8e\xf7?'
p1676
tp1677
Rp1678
sg16
g17
ssI671
(dp1679
g3
S'EURCAD'
p1680
sg5
g6
(g10
S'\xa7\x14,{0\x89\xf7?'
p1681
tp1682
Rp1683
sg16
g33
ssI675
(dp1684
g3
S'EURCAD'
p1685
sg5
g6
(g10
S'\xf2m\x01\x84\xde\xc8\xf7?'
p1686
tp1687
Rp1688
sg16
g33
ssI676
(dp1689
g3
S'EURCAD'
p1690
sg5
g6
(g10
S'\x93\x1395&\xb4\xf7?'
p1691
tp1692
Rp1693
sg16
g33
ssI678
(dp1694
g3
S'EURCAD'
p1695
sg5
g6
(g10
S'\xa3\xa6\x12\xbdt\xee\xf7?'
p1696
tp1697
Rp1698
sg16
g17
ssI679
(dp1699
g3
S'EURCAD'
p1700
sg5
g6
(g10
S'=\xdf\xe0\xbe\x8d\r\xf8?'
p1701
tp1702
Rp1703
sg16
g33
ssI680
(dp1704
g3
S'EURCAD'
p1705
sg5
g6
(g10
S'-\xa4C\x86\xf7,\xf8?'
p1706
tp1707
Rp1708
sg16
g17
ssI682
(dp1709
g3
S'EURCAD'
p1710
sg5
g6
(g10
S'|\x8b\xe0\xc3o\xcc\xf7?'
p1711
tp1712
Rp1713
sg16
g17
ssI687
(dp1714
g3
S'EURCAD'
p1715
sg5
g6
(g10
S'\x8f\tGT\xdeW\xf7?'
p1716
tp1717
Rp1718
sg16
g17
ssI688
(dp1719
g3
S'EURCAD'
p1720
sg5
g6
(g10
S'\xd8\xc5`\xe5\x92M\xf7?'
p1721
tp1722
Rp1723
sg16
g17
ssI689
(dp1724
g3
S'EURCAD'
p1725
sg5
g6
(g10
S'\xec9;\xc4\x9a>\xf7?'
p1726
tp1727
Rp1728
sg16
g17
ssI693
(dp1729
g3
S'EURCAD'
p1730
sg5
g6
(g10
S'?w\xb2\x04\xa1\xfe\xf6?'
p1731
tp1732
Rp1733
sg16
g17
ssI696
(dp1734
g3
S'EURCAD'
p1735
sg5
g6
(g10
S'\xb0%\x9e\xd4v\xa9\xf6?'
p1736
tp1737
Rp1738
sg16
g33
ssI698
(dp1739
g3
S'EURCAD'
p1740
sg5
g6
(g10
S'3\xea\x8dm\xe4\x92\xf6?'
p1741
tp1742
Rp1743
sg16
g33
ssI699
(dp1744
g3
S'EURCAD'
p1745
sg5
g6
(g10
S'\x97o\xbc~\xf0\x9d\xf6?'
p1746
tp1747
Rp1748
sg16
g33
ssI700
(dp1749
g3
S'EURCAD'
p1750
sg5
g6
(g10
S'\x8c\x84\x9b\x8d\x1d\x91\xf6?'
p1751
tp1752
Rp1753
sg16
g33
ssI701
(dp1754
g3
S'EURCAD'
p1755
sg5
g6
(g10
S'\xc0pAZ\xc5\xc9\xf6?'
p1756
tp1757
Rp1758
sg16
g33
ssI702
(dp1759
g3
S'EURCAD'
p1760
sg5
g6
(g10
S'_c\xf9X\xc2\xf5\xf6?'
p1761
tp1762
Rp1763
sg16
g33
ssI703
(dp1764
g3
S'EURCAD'
p1765
sg5
g6
(g10
S'\xb2\xe5`\x90E\xed\xf6?'
p1766
tp1767
Rp1768
sg16
g33
ssI705
(dp1769
g3
S'EURCAD'
p1770
sg5
g6
(g10
S'\xa3*N\x83\x0e\xad\xf6?'
p1771
tp1772
Rp1773
sg16
g33
ssI706
(dp1774
g3
S'EURCAD'
p1775
sg5
g6
(g10
S'\x8b\xef\x8d\xd2Z\xdb\xf6?'
p1776
tp1777
Rp1778
sg16
g17
ssI707
(dp1779
g3
S'EURCAD'
p1780
sg5
g6
(g10
S'\xd9N\x10\xd6[\xdd\xf6?'
p1781
tp1782
Rp1783
sg16
g33
ssI708
(dp1784
g3
S'EURCAD'
p1785
sg5
g6
(g10
S'\r\x7f@\xc3)\x01\xf7?'
p1786
tp1787
Rp1788
sg16
g17
ssI711
(dp1789
g3
S'EURCAD'
p1790
sg5
g6
(g10
S'\x802\xa9}a\xd9\xf6?'
p1791
tp1792
Rp1793
sg16
g33
ssI713
(dp1794
g3
S'EURCAD'
p1795
sg5
g6
(g10
S'IJcUn\x13\xf7?'
p1796
tp1797
Rp1798
sg16
g33
ssI714
(dp1799
g3
S'EURCAD'
p1800
sg5
g6
(g10
S'\x9d\xea\xf2\xbcA\x18\xf7?'
p1801
tp1802
Rp1803
sg16
g17
ssI716
(dp1804
g3
S'EURCAD'
p1805
sg5
g6
(g10
S'\xddS\x03\x05\xec\x18\xf7?'
p1806
tp1807
Rp1808
sg16
g17
ssI717
(dp1809
g3
S'EURCAD'
p1810
sg5
g6
(g10
S'gx\x06)T\x17\xf7?'
p1811
tp1812
Rp1813
sg16
g17
ssI719
(dp1814
g3
S'EURCAD'
p1815
sg5
g6
(g10
S"b\xed>'\x110\xf7?"
p1816
tp1817
Rp1818
sg16
g17
ssI720
(dp1819
g3
S'EURCAD'
p1820
sg5
g6
(g10
S'\xa3\x87\xcf\xdcD/\xf7?'
p1821
tp1822
Rp1823
sg16
g17
ssI721
(dp1824
g3
S'EURCAD'
p1825
sg5
g6
(g10
S'\xe2\x14W\x8d\xc1\xf6\xf6?'
p1826
tp1827
Rp1828
sg16
g17
ssI724
(dp1829
g3
S'EURCAD'
p1830
sg5
g6
(g10
S'\xd3\x1a\xfbd\xe8\xef\xf6?'
p1831
tp1832
Rp1833
sg16
g17
ssI725
(dp1834
g3
S'EURCAD'
p1835
sg5
g6
(g10
S'\xc4~\xac\xea\xdd\xe1\xf6?'
p1836
tp1837
Rp1838
sg16
g17
ssI727
(dp1839
g3
S'EURCAD'
p1840
sg5
g6
(g10
S'D\xb0\xb9C\xe9\xb7\xf6?'
p1841
tp1842
Rp1843
sg16
g17
ssI729
(dp1844
g3
S'EURCAD'
p1845
sg5
g6
(g10
S',u\xaf\xd1\x8b\xc7\xf6?'
p1846
tp1847
Rp1848
sg16
g33
ssI730
(dp1849
g3
S'EURCAD'
p1850
sg5
g6
(g10
S'S}\xd5\xaa\xa4\xc3\xf6?'
p1851
tp1852
Rp1853
sg16
g17
ssI732
(dp1854
g3
S'EURCAD'
p1855
sg5
g6
(g10
S'\xbdj\x08\xfa.\xaa\xf6?'
p1856
tp1857
Rp1858
sg16
g33
ssI734
(dp1859
g3
S'EURCAD'
p1860
sg5
g6
(g10
S'\xdd\x1b\xbe\xc2\xa8\xc9\xf6?'
p1861
tp1862
Rp1863
sg16
g33
ssI735
(dp1864
g3
S'EURCAD'
p1865
sg5
g6
(g10
S's\x91%\xa5\x0c\xa7\xf6?'
p1866
tp1867
Rp1868
sg16
g33
ssI736
(dp1869
g3
S'EURCAD'
p1870
sg5
g6
(g10
S'H\xf2W\x03\xcb\x9e\xf6?'
p1871
tp1872
Rp1873
sg16
g17
ssI737
(dp1874
g3
S'EURCAD'
p1875
sg5
g6
(g10
S'\x8e\x1d\x9bY\xad\xb0\xf6?'
p1876
tp1877
Rp1878
sg16
g33
ssI738
(dp1879
g3
S'EURCAD'
p1880
sg5
g6
(g10
S'9\xe5o\xd6\xa7\xde\xf6?'
p1881
tp1882
Rp1883
sg16
g17
ssI739
(dp1884
g3
S'EURCAD'
p1885
sg5
g6
(g10
S"\xee\xf8'V/\xf8\xf6?"
p1886
tp1887
Rp1888
sg16
g17
ssI742
(dp1889
g3
S'EURCAD'
p1890
sg5
g6
(g10
S'\xca\xb4\x8b\xa5\xd7\xd6\xf6?'
p1891
tp1892
Rp1893
sg16
g17
ssI745
(dp1894
g3
S'EURCAD'
p1895
sg5
g6
(g10
S'\x04\x8flwO\xf9\xf6?'
p1896
tp1897
Rp1898
sg16
g33
ssI746
(dp1899
g3
S'EURCAD'
p1900
sg5
g6
(g10
S'\x19lQ\xbf\x90\xca\xf6?'
p1901
tp1902
Rp1903
sg16
g33
ssI747
(dp1904
g3
S'EURCAD'
p1905
sg5
g6
(g10
S'\xb1}_`\x06\xd1\xf6?'
p1906
tp1907
Rp1908
sg16
g33
ssI754
(dp1909
g3
S'EURCAD'
p1910
sg5
g6
(g10
S'\x16\xa1\x10\x0c\n\xe1\xf6?'
p1911
tp1912
Rp1913
sg16
g33
ssI755
(dp1914
g3
S'EURCAD'
p1915
sg5
g6
(g10
S'\xcf/\x19\x078\x14\xf7?'
p1916
tp1917
Rp1918
sg16
g33
ssI756
(dp1919
g3
S'EURCAD'
p1920
sg5
g6
(g10
S'\x82\xe0{\xd4\xfa\xf9\xf6?'
p1921
tp1922
Rp1923
sg16
g33
ssI762
(dp1924
g3
S'EURCAD'
p1925
sg5
g6
(g10
S'&\xda({\xabg\xf7?'
p1926
tp1927
Rp1928
sg16
g33
ssI763
(dp1929
g3
S'EURCAD'
p1930
sg5
g6
(g10
S'f\x11_N0\x7f\xf7?'
p1931
tp1932
Rp1933
sg16
g17
ssI766
(dp1934
g3
S'EURCAD'
p1935
sg5
g6
(g10
S'"\xa6\x08\xb4\xe9\xb2\xf7?'
p1936
tp1937
Rp1938
sg16
g33
ssI767
(dp1939
g3
S'EURCAD'
p1940
sg5
g6
(g10
S'\x82\xb8W\x04\xc6\xa3\xf7?'
p1941
tp1942
Rp1943
sg16
g33
ssI768
(dp1944
g3
S'EURCAD'
p1945
sg5
g6
(g10
S'P\x8e\x85\x1a;z\xf7?'
p1946
tp1947
Rp1948
sg16
g17
ssI769
(dp1949
g3
S'EURCAD'
p1950
sg5
g6
(g10
S'\x9c97p~>\xf7?'
p1951
tp1952
Rp1953
sg16
g17
ssI771
(dp1954
g3
S'EURCAD'
p1955
sg5
g6
(g10
S'\xd3\xa3\xbf~\xaa\x16\xf7?'
p1956
tp1957
Rp1958
sg16
g33
ssI772
(dp1959
g3
S'EURCAD'
p1960
sg5
g6
(g10
S'j1\x96\xaf-\x15\xf7?'
p1961
tp1962
Rp1963
sg16
g17
ssI773
(dp1964
g3
S'EURCAD'
p1965
sg5
g6
(g10
S'!\xb8\xb3\x7f\xcf\x14\xf7?'
p1966
tp1967
Rp1968
sg16
g33
ssI774
(dp1969
g3
S'EURCAD'
p1970
sg5
g6
(g10
S"\x81\xdcsY\xa5'\xf7?"
p1971
tp1972
Rp1973
sg16
g17
ssI775
(dp1974
g3
S'EURCAD'
p1975
sg5
g6
(g10
S'(\xf8f\xfd?\x17\xf7?'
p1976
tp1977
Rp1978
sg16
g17
ssI777
(dp1979
g3
S'EURCAD'
p1980
sg5
g6
(g10
S'\x84\x84\x9c]d\x07\xf7?'
p1981
tp1982
Rp1983
sg16
g17
ssI780
(dp1984
g3
S'EURCAD'
p1985
sg5
g6
(g10
S'q\xfc\xeb\x13U\xf2\xf6?'
p1986
tp1987
Rp1988
sg16
g33
ssI781
(dp1989
g3
S'EURCAD'
p1990
sg5
g6
(g10
S'#aNv\xad\xdb\xf6?'
p1991
tp1992
Rp1993
sg16
g33
ssI784
(dp1994
g3
S'EURCAD'
p1995
sg5
g6
(g10
S'\xa95]#\xd5\xdd\xf6?'
p1996
tp1997
Rp1998
sg16
g33
ssI786
(dp1999
g3
S'EURCAD'
p2000
sg5
g6
(g10
S'L\x0b\xf3\xc2\xcc\xf8\xf6?'
p2001
tp2002
Rp2003
sg16
g33
ssI788
(dp2004
g3
S'EURCAD'
p2005
sg5
g6
(g10
S'\x16\xd6\xe0\x04\xb6\xe9\xf6?'
p2006
tp2007
Rp2008
sg16
g17
ssI789
(dp2009
g3
S'EURCAD'
p2010
sg5
g6
(g10
S'Q\x85\xfe\xb5\x1f\xe9\xf6?'
p2011
tp2012
Rp2013
sg16
g33
ssI793
(dp2014
g3
S'EURCAD'
p2015
sg5
g6
(g10
S'\xcf\xed\xddA\xc2\x0e\xf7?'
p2016
tp2017
Rp2018
sg16
g33
ssI795
(dp2019
g3
S'EURCAD'
p2020
sg5
g6
(g10
S'x\x8a\xcbg\x030\xf7?'
p2021
tp2022
Rp2023
sg16
g33
ssI797
(dp2024
g3
S'EURCAD'
p2025
sg5
g6
(g10
S'-?\xb1\xc6\x83!\xf7?'
p2026
tp2027
Rp2028
sg16
g17
ssI801
(dp2029
g3
S'EURCAD'
p2030
sg5
g6
(g10
S'\x81\xf6\xe5,e_\xf7?'
p2031
tp2032
Rp2033
sg16
g33
ssI802
(dp2034
g3
S'EURCAD'
p2035
sg5
g6
(g10
S'\xa2@\xc9y}(\xf7?'
p2036
tp2037
Rp2038
sg16
g33
ssI805
(dp2039
g3
S'EURCAD'
p2040
sg5
g6
(g10
S'\r\xfa\xd9\xfb"y\xf7?'
p2041
tp2042
Rp2043
sg16
g33
ssI806
(dp2044
g3
S'EURCAD'
p2045
sg5
g6
(g10
S'\x9c\xf81\xf6\x89\xaa\xf7?'
p2046
tp2047
Rp2048
sg16
g33
ssI807
(dp2049
g3
S'EURCAD'
p2050
sg5
g6
(g10
S')\x96\xe4\x01\xf0\xcd\xf7?'
p2051
tp2052
Rp2053
sg16
g33
ssI808
(dp2054
g3
S'EURCAD'
p2055
sg5
g6
(g10
S'V\t<\xdd\x81\xeb\xf7?'
p2056
tp2057
Rp2058
sg16
g17
ssI810
(dp2059
g3
S'EURCAD'
p2060
sg5
g6
(g10
S'\xea;$l1\xea\xf7?'
p2061
tp2062
Rp2063
sg16
g33
ssI812
(dp2064
g3
S'EURCAD'
p2065
sg5
g6
(g10
S'\xcb\xb6\xd2\x1b\x88\xf0\xf7?'
p2066
tp2067
Rp2068
sg16
g33
ssI813
(dp2069
g3
S'EURCAD'
p2070
sg5
g6
(g10
S'\xbe@\x17\x92\x1f\x04\xf8?'
p2071
tp2072
Rp2073
sg16
g17
ssI814
(dp2074
g3
S'EURCAD'
p2075
sg5
g6
(g10
S'\x98\x9c\xb6a\xb4\x00\xf8?'
p2076
tp2077
Rp2078
sg16
g33
ssI816
(dp2079
g3
S'EURCAD'
p2080
sg5
g6
(g10
S'c$\x86\xe1f\x10\xf8?'
p2081
tp2082
Rp2083
sg16
g17
ssI818
(dp2084
g3
S'EURCAD'
p2085
sg5
g6
(g10
S'|\xd7\t\x01\r\xfb\xf7?'
p2086
tp2087
Rp2088
sg16
g17
ssI820
(dp2089
g3
S'EURCAD'
p2090
sg5
g6
(g10
S'p\xa7\xd4\x83\xfd\xeb\xf7?'
p2091
tp2092
Rp2093
sg16
g33
ssI822
(dp2094
g3
S'EURCAD'
p2095
sg5
g6
(g10
S'\xdc\xe84\x0e-\xe5\xf7?'
p2096
tp2097
Rp2098
sg16
g17
ssI824
(dp2099
g3
S'EURCAD'
p2100
sg5
g6
(g10
S'\x95,\xd6dG\xba\xf7?'
p2101
tp2102
Rp2103
sg16
g33
ssI826
(dp2104
g3
S'EURCAD'
p2105
sg5
g6
(g10
S'#\x96\x89\xfa\xec\xe7\xf7?'
p2106
tp2107
Rp2108
sg16
g33
ssI828
(dp2109
g3
S'EURCAD'
p2110
sg5
g6
(g10
S'\xb4$\xf2\xf5\xc5\xc8\xf7?'
p2111
tp2112
Rp2113
sg16
g17
ssI831
(dp2114
g3
S'EURCAD'
p2115
sg5
g6
(g10
S'@6\xd1g\x12_\xf8?'
p2116
tp2117
Rp2118
sg16
g33
ssI832
(dp2119
g3
S'EURCAD'
p2120
sg5
g6
(g10
S'eY.\x7f\x83U\xf8?'
p2121
tp2122
Rp2123
sg16
g33
ssI833
(dp2124
g3
S'EURCAD'
p2125
sg5
g6
(g10
S'\x022[\x8eji\xf8?'
p2126
tp2127
Rp2128
sg16
g17
ssI835
(dp2129
g3
S'EURCAD'
p2130
sg5
g6
(g10
S'\xda\x8fN\x98\x9d\x86\xf8?'
p2131
tp2132
Rp2133
sg16
g17
ssI836
(dp2134
g3
S'EURCAD'
p2135
sg5
g6
(g10
S'2\xc9\xce\\Yo\xf8?'
p2136
tp2137
Rp2138
sg16
g17
ssI838
(dp2139
g3
S'EURCAD'
p2140
sg5
g6
(g10
S'}\xbe1O]r\xf8?'
p2141
tp2142
Rp2143
sg16
g17
ssI840
(dp2144
g3
S'EURCAD'
p2145
sg5
g6
(g10
S'\x88\xd6X\x9c\x96\x03\xf8?'
p2146
tp2147
Rp2148
sg16
g33
ssI841
(dp2149
g3
S'EURCAD'
p2150
sg5
g6
(g10
S'\x93\x9b\xc4\x8e\xdf\x07\xf8?'
p2151
tp2152
Rp2153
sg16
g33
ssI843
(dp2154
g3
S'EURCAD'
p2155
sg5
g6
(g10
S'\x01\x0cj\x84dW\xf8?'
p2156
tp2157
Rp2158
sg16
g17
ssI847
(dp2159
g3
S'EURCAD'
p2160
sg5
g6
(g10
S'bH\x86\xc0\x10\x00\xf8?'
p2161
tp2162
Rp2163
sg16
g33
ssI849
(dp2164
g3
S'EURCAD'
p2165
sg5
g6
(g10
S'\x1a\xc8\x7f{\x14f\xf8?'
p2166
tp2167
Rp2168
sg16
g33
ssI852
(dp2169
g3
S'EURCAD'
p2170
sg5
g6
(g10
S'\xe8\n/\xe5\xcb^\xf8?'
p2171
tp2172
Rp2173
sg16
g33
ssI853
(dp2174
g3
S'EURCAD'
p2175
sg5
g6
(g10
S'4A\xd9ckw\xf8?'
p2176
tp2177
Rp2178
sg16
g33
ssI854
(dp2179
g3
S'EURCAD'
p2180
sg5
g6
(g10
S'\x92\x12l\xc8s\x96\xf8?'
p2181
tp2182
Rp2183
sg16
g33
ssI857
(dp2184
g3
S'EURCAD'
p2185
sg5
g6
(g10
S'8\x9e\xe9h\xee\x10\xf9?'
p2186
tp2187
Rp2188
sg16
g17
ssI860
(dp2189
g3
S'EURCAD'
p2190
sg5
g6
(g10
S'\xc8[\xe7\xc5\xf5\xe6\xf8?'
p2191
tp2192
Rp2193
sg16
g17
ssI863
(dp2194
g3
S'EURCAD'
p2195
sg5
g6
(g10
S'\x99\xeb\xff!\xdf\xd1\xf8?'
p2196
tp2197
Rp2198
sg16
g17
ssI864
(dp2199
g3
S'EURCAD'
p2200
sg5
g6
(g10
S'E\x86R\n8\xe7\xf8?'
p2201
tp2202
Rp2203
sg16
g33
ssI865
(dp2204
g3
S'EURCAD'
p2205
sg5
g6
(g10
S'x\x86G\xb8\x7f\xd1\xf8?'
p2206
tp2207
Rp2208
sg16
g33
ssI867
(dp2209
g3
S'EURCAD'
p2210
sg5
g6
(g10
S'\xb1\x1c\xdfF\xaf\xd6\xf8?'
p2211
tp2212
Rp2213
sg16
g33
ssa(dp2214
I1
(dp2215
g3
S'EURJPY'
p2216
sg5
g6
(g10
S'\xa4\xd3=R\xe5;^@'
p2217
tp2218
Rp2219
sg16
g17
ssI3
(dp2220
g3
S'EURJPY'
p2221
sg5
g6
(g10
S'\x17\xa0\x9c\xa0\xd4\x18^@'
p2222
tp2223
Rp2224
sg16
g33
ssI7
(dp2225
g3
S'EURJPY'
p2226
sg5
g6
(g10
S'\xdf\x84\xbfz\x83\x00^@'
p2227
tp2228
Rp2229
sg16
g33
ssI8
(dp2230
g3
S'EURJPY'
p2231
sg5
g6
(g10
S'\xac\x1bN\x08y\x1a^@'
p2232
tp2233
Rp2234
sg16
g17
ssI11
(dp2235
g3
S'EURJPY'
p2236
sg5
g6
(g10
S'\x97\x1aQ\x15\xbb\x02^@'
p2237
tp2238
Rp2239
sg16
g17
ssI13
(dp2240
g3
S'EURJPY'
p2241
sg5
g6
(g10
S'\x87\xa69\x87\x07\xfd]@'
p2242
tp2243
Rp2244
sg16
g33
ssI15
(dp2245
g3
S'EURJPY'
p2246
sg5
g6
(g10
S'\xeb\xf0\x0e?!1^@'
p2247
tp2248
Rp2249
sg16
g33
ssI16
(dp2250
g3
S'EURJPY'
p2251
sg5
g6
(g10
S'3\xfe\x92\xea\x04\x89^@'
p2252
tp2253
Rp2254
sg16
g33
ssI17
(dp2255
g3
S'EURJPY'
p2256
sg5
g6
(g10
S'\x1e\x8c\xf6`m\x98^@'
p2257
tp2258
Rp2259
sg16
g33
ssI18
(dp2260
g3
S'EURJPY'
p2261
sg5
g6
(g10
S'\xa5\xf9\xae\xf1i\x81^@'
p2262
tp2263
Rp2264
sg16
g33
ssI20
(dp2265
g3
S'EURJPY'
p2266
sg5
g6
(g10
S'\x18n\xbbTZ\xb8^@'
p2267
tp2268
Rp2269
sg16
g33
ssI21
(dp2270
g3
S'EURJPY'
p2271
sg5
g6
(g10
S'\xf3 \xf6P6\xca^@'
p2272
tp2273
Rp2274
sg16
g33
ssI22
(dp2275
g3
S'EURJPY'
p2276
sg5
g6
(g10
S'o.9\x97\x07\xfa^@'
p2277
tp2278
Rp2279
sg16
g33
ssI23
(dp2280
g3
S'EURJPY'
p2281
sg5
g6
(g10
S'\xa8MN\xa7\xde\xfe^@'
p2282
tp2283
Rp2284
sg16
g17
ssI24
(dp2285
g3
S'EURJPY'
p2286
sg5
g6
(g10
S'\x96N\xe9\x80c\xfa^@'
p2287
tp2288
Rp2289
sg16
g17
ssI26
(dp2290
g3
S'EURJPY'
p2291
sg5
g6
(g10
S'nVk\xbe(,_@'
p2292
tp2293
Rp2294
sg16
g33
ssI27
(dp2295
g3
S'EURJPY'
p2296
sg5
g6
(g10
S'\xdc\x81\x98\xd16<_@'
p2297
tp2298
Rp2299
sg16
g17
ssI29
(dp2300
g3
S'EURJPY'
p2301
sg5
g6
(g10
S'k.3\xf3\xbd\xe1^@'
p2302
tp2303
Rp2304
sg16
g33
ssI30
(dp2305
g3
S'EURJPY'
p2306
sg5
g6
(g10
S'\xb5g\xc0\x93\x97\xba^@'
p2307
tp2308
Rp2309
sg16
g33
ssI32
(dp2310
g3
S'EURJPY'
p2311
sg5
g6
(g10
S'\xaa\x06/?\xd3\xbf^@'
p2312
tp2313
Rp2314
sg16
g33
ssI33
(dp2315
g3
S'EURJPY'
p2316
sg5
g6
(g10
S'F2\xa5\xa5\xc4\x98^@'
p2317
tp2318
Rp2319
sg16
g33
ssI37
(dp2320
g3
S'EURJPY'
p2321
sg5
g6
(g10
S't\xdc\xa6\x8c\x08\xee^@'
p2322
tp2323
Rp2324
sg16
g17
ssI40
(dp2325
g3
S'EURJPY'
p2326
sg5
g6
(g10
S'_6\xc9}\xf2/_@'
p2327
tp2328
Rp2329
sg16
g17
ssI44
(dp2330
g3
S'EURJPY'
p2331
sg5
g6
(g10
S'\x13O\xdb@Xe^@'
p2332
tp2333
Rp2334
sg16
g17
ssI46
(dp2335
g3
S'EURJPY'
p2336
sg5
g6
(g10
S'\xf1x0\xc9\x8b\x81^@'
p2337
tp2338
Rp2339
sg16
g17
ssI48
(dp2340
g3
S'EURJPY'
p2341
sg5
g6
(g10
S'hY\xa0\xa88\x9d^@'
p2342
tp2343
Rp2344
sg16
g17
ssI50
(dp2345
g3
S'EURJPY'
p2346
sg5
g6
(g10
S"\xb7\xe0K'\xbd\xb6^@"
p2347
tp2348
Rp2349
sg16
g33
ssI52
(dp2350
g3
S'EURJPY'
p2351
sg5
g6
(g10
S'\x00\xacP\xe1f\xbd^@'
p2352
tp2353
Rp2354
sg16
g33
ssI53
(dp2355
g3
S'EURJPY'
p2356
sg5
g6
(g10
S'h\xde\xe3\xbf\xe2u^@'
p2357
tp2358
Rp2359
sg16
g33
ssI54
(dp2360
g3
S'EURJPY'
p2361
sg5
g6
(g10
S'G^\xafnH\x8e^@'
p2362
tp2363
Rp2364
sg16
g17
ssI56
(dp2365
g3
S'EURJPY'
p2366
sg5
g6
(g10
S'\xf7\xfe\x08\x93p\xaf^@'
p2367
tp2368
Rp2369
sg16
g17
ssI59
(dp2370
g3
S'EURJPY'
p2371
sg5
g6
(g10
S'$\xe5D\xbd\x8e\xea^@'
p2372
tp2373
Rp2374
sg16
g33
ssI60
(dp2375
g3
S'EURJPY'
p2376
sg5
g6
(g10
S'\xa4\xf23\xadL\xe3^@'
p2377
tp2378
Rp2379
sg16
g17
ssI62
(dp2380
g3
S'EURJPY'
p2381
sg5
g6
(g10
S'\xf9\x90J\xd2x)_@'
p2382
tp2383
Rp2384
sg16
g17
ssI63
(dp2385
g3
S'EURJPY'
p2386
sg5
g6
(g10
S'\x81X\x0b\xe2r\x15_@'
p2387
tp2388
Rp2389
sg16
g17
ssI66
(dp2390
g3
S'EURJPY'
p2391
sg5
g6
(g10
S'\x19w\xac\r\xaf\xe0^@'
p2392
tp2393
Rp2394
sg16
g17
ssI67
(dp2395
g3
S'EURJPY'
p2396
sg5
g6
(g10
S'5\x8e\x97\x91\x0c\x7f^@'
p2397
tp2398
Rp2399
sg16
g33
ssI70
(dp2400
g3
S'EURJPY'
p2401
sg5
g6
(g10
S'\xf2l\x8eoG\x9d^@'
p2402
tp2403
Rp2404
sg16
g33
ssI71
(dp2405
g3
S'EURJPY'
p2406
sg5
g6
(g10
S'_K(=\x03\xad^@'
p2407
tp2408
Rp2409
sg16
g17
ssI74
(dp2410
g3
S'EURJPY'
p2411
sg5
g6
(g10
S'\xde{\xbe_P\x94^@'
p2412
tp2413
Rp2414
sg16
g17
ssI75
(dp2415
g3
S'EURJPY'
p2416
sg5
g6
(g10
S":'\x87T\xce\xe9^@"
p2417
tp2418
Rp2419
sg16
g33
ssI76
(dp2420
g3
S'EURJPY'
p2421
sg5
g6
(g10
S'\x07\xbd\x19A\xdc\xc5^@'
p2422
tp2423
Rp2424
sg16
g33
ssI78
(dp2425
g3
S'EURJPY'
p2426
sg5
g6
(g10
S'r\x17b\xd7d\xfd^@'
p2427
tp2428
Rp2429
sg16
g17
ssI79
(dp2430
g3
S'EURJPY'
p2431
sg5
g6
(g10
S"\xc2\x9d\xf6\x04\xa2'_@"
p2432
tp2433
Rp2434
sg16
g33
ssI80
(dp2435
g3
S'EURJPY'
p2436
sg5
g6
(g10
S'\x19i$\xe6\xd4%_@'
p2437
tp2438
Rp2439
sg16
g33
ssI81
(dp2440
g3
S'EURJPY'
p2441
sg5
g6
(g10
S'#l\xafCJI_@'
p2442
tp2443
Rp2444
sg16
g33
ssI88
(dp2445
g3
S'EURJPY'
p2446
sg5
g6
(g10
S'\x13\xad\xc8\x9e\xcd\x1c_@'
p2447
tp2448
Rp2449
sg16
g33
ssI90
(dp2450
g3
S'EURJPY'
p2451
sg5
g6
(g10
S'\xa2]\xac\xc5\xda\xf4^@'
p2452
tp2453
Rp2454
sg16
g33
ssI91
(dp2455
g3
S'EURJPY'
p2456
sg5
g6
(g10
S'+\xfaLp\xd2\xf7^@'
p2457
tp2458
Rp2459
sg16
g33
ssI92
(dp2460
g3
S'EURJPY'
p2461
sg5
g6
(g10
S'\xce\x1db\xe6\x89"_@'
p2462
tp2463
Rp2464
sg16
g33
ssI95
(dp2465
g3
S'EURJPY'
p2466
sg5
g6
(g10
S'M\r\xfcg\x00\r_@'
p2467
tp2468
Rp2469
sg16
g17
ssI97
(dp2470
g3
S'EURJPY'
p2471
sg5
g6
(g10
S'H\x04\xa8.\xb5a_@'
p2472
tp2473
Rp2474
sg16
g33
ssI98
(dp2475
g3
S'EURJPY'
p2476
sg5
g6
(g10
S'\xa4\xe8/\xeeg\xa6_@'
p2477
tp2478
Rp2479
sg16
g17
ssI100
(dp2480
g3
S'EURJPY'
p2481
sg5
g6
(g10
S'y\xec;v\x8c\x0c`@'
p2482
tp2483
Rp2484
sg16
g33
ssI101
(dp2485
g3
S'EURJPY'
p2486
sg5
g6
(g10
S'\xab\x95\xa4\xfd\xf5)`@'
p2487
tp2488
Rp2489
sg16
g17
ssI102
(dp2490
g3
S'EURJPY'
p2491
sg5
g6
(g10
S'`\xe0\xb0\xea\xe0\x17`@'
p2492
tp2493
Rp2494
sg16
g33
ssI103
(dp2495
g3
S'EURJPY'
p2496
sg5
g6
(g10
S'\x95\x94?\xbd\xe9\x04`@'
p2497
tp2498
Rp2499
sg16
g17
ssI104
(dp2500
g3
S'EURJPY'
p2501
sg5
g6
(g10
S'#U\xfa\xfaD)`@'
p2502
tp2503
Rp2504
sg16
g17
ssI105
(dp2505
g3
S'EURJPY'
p2506
sg5
g6
(g10
S"\x80\xb0\x0e\xfe\xe5'`@"
p2507
tp2508
Rp2509
sg16
g17
ssI106
(dp2510
g3
S'EURJPY'
p2511
sg5
g6
(g10
S'!\nR\\>:`@'
p2512
tp2513
Rp2514
sg16
g33
ssI111
(dp2515
g3
S'EURJPY'
p2516
sg5
g6
(g10
S'\x97G\xd4\xe8\xfd\x17`@'
p2517
tp2518
Rp2519
sg16
g17
ssI113
(dp2520
g3
S'EURJPY'
p2521
sg5
g6
(g10
S'\xa7\xbd\'"n\x18`@'
p2522
tp2523
Rp2524
sg16
g17
ssI115
(dp2525
g3
S'EURJPY'
p2526
sg5
g6
(g10
S'\x16\xae\xb1e\xf4\x15`@'
p2527
tp2528
Rp2529
sg16
g33
ssI116
(dp2530
g3
S'EURJPY'
p2531
sg5
g6
(g10
S'?\xac\x80\xa2\xa6\x13`@'
p2532
tp2533
Rp2534
sg16
g33
ssI117
(dp2535
g3
S'EURJPY'
p2536
sg5
g6
(g10
S'\xd0\xaeXff\x13`@'
p2537
tp2538
Rp2539
sg16
g17
ssI118
(dp2540
g3
S'EURJPY'
p2541
sg5
g6
(g10
S"\xe8\xbf\t]'\x0f`@"
p2542
tp2543
Rp2544
sg16
g33
ssI120
(dp2545
g3
S'EURJPY'
p2546
sg5
g6
(g10
S'@!\xa1\x89\x917`@'
p2547
tp2548
Rp2549
sg16
g17
ssI121
(dp2550
g3
S'EURJPY'
p2551
sg5
g6
(g10
S'\x12\xc2\x05N\xeeN`@'
p2552
tp2553
Rp2554
sg16
g33
ssI122
(dp2555
g3
S'EURJPY'
p2556
sg5
g6
(g10
S'\x98g\xf6"\x1f@`@'
p2557
tp2558
Rp2559
sg16
g33
ssI123
(dp2560
g3
S'EURJPY'
p2561
sg5
g6
(g10
S'\x15j\xdf?<U`@'
p2562
tp2563
Rp2564
sg16
g33
ssI129
(dp2565
g3
S'EURJPY'
p2566
sg5
g6
(g10
S'[\xf3\xd9<+6`@'
p2567
tp2568
Rp2569
sg16
g33
ssI131
(dp2570
g3
S'EURJPY'
p2571
sg5
g6
(g10
S'y\x1b\xdb\x0b\xc67`@'
p2572
tp2573
Rp2574
sg16
g33
ssI133
(dp2575
g3
S'EURJPY'
p2576
sg5
g6
(g10
S'\xa4\xdcj\xce\t,`@'
p2577
tp2578
Rp2579
sg16
g33
ssI134
(dp2580
g3
S'EURJPY'
p2581
sg5
g6
(g10
S'S\xc8[\xd2\x1cF`@'
p2582
tp2583
Rp2584
sg16
g33
ssI135
(dp2585
g3
S'EURJPY'
p2586
sg5
g6
(g10
S'\x90\x88%\x99`U`@'
p2587
tp2588
Rp2589
sg16
g33
ssI136
(dp2590
g3
S'EURJPY'
p2591
sg5
g6
(g10
S'\xc6\x97\x99m`H`@'
p2592
tp2593
Rp2594
sg16
g17
ssI139
(dp2595
g3
S'EURJPY'
p2596
sg5
g6
(g10
S'\xc0\xc2\x8b(gH`@'
p2597
tp2598
Rp2599
sg16
g17
ssI140
(dp2600
g3
S'EURJPY'
p2601
sg5
g6
(g10
S'_\xe1\x18\x89\x1cP`@'
p2602
tp2603
Rp2604
sg16
g33
ssI142
(dp2605
g3
S'EURJPY'
p2606
sg5
g6
(g10
S'\xbfg\x89\t\xa4[`@'
p2607
tp2608
Rp2609
sg16
g17
ssI144
(dp2610
g3
S'EURJPY'
p2611
sg5
g6
(g10
S'\xce\x83\x082\x00S`@'
p2612
tp2613
Rp2614
sg16
g33
ssI146
(dp2615
g3
S'EURJPY'
p2616
sg5
g6
(g10
S'\xc1\x15\x8a\xce\x92N`@'
p2617
tp2618
Rp2619
sg16
g33
ssI147
(dp2620
g3
S'EURJPY'
p2621
sg5
g6
(g10
S'hm\xf1\xa9mN`@'
p2622
tp2623
Rp2624
sg16
g17
ssI148
(dp2625
g3
S'EURJPY'
p2626
sg5
g6
(g10
S'\xe6\xe6M\x19\xc4k`@'
p2627
tp2628
Rp2629
sg16
g17
ssI149
(dp2630
g3
S'EURJPY'
p2631
sg5
g6
(g10
S'!B1\x18\xcdq`@'
p2632
tp2633
Rp2634
sg16
g33
ssI150
(dp2635
g3
S'EURJPY'
p2636
sg5
g6
(g10
S'\xec\xa5iGaJ`@'
p2637
tp2638
Rp2639
sg16
g17
ssI153
(dp2640
g3
S'EURJPY'
p2641
sg5
g6
(g10
S'\x06\xfcE_7Q`@'
p2642
tp2643
Rp2644
sg16
g33
ssI155
(dp2645
g3
S'EURJPY'
p2646
sg5
g6
(g10
S'\x0b\x8d\xa9:\x8d\x80`@'
p2647
tp2648
Rp2649
sg16
g33
ssI156
(dp2650
g3
S'EURJPY'
p2651
sg5
g6
(g10
S'\xf8\xf2\xbc\x81\x11\x8c`@'
p2652
tp2653
Rp2654
sg16
g33
ssI157
(dp2655
g3
S'EURJPY'
p2656
sg5
g6
(g10
S'\x8c\xda\x9c`\x10\x93`@'
p2657
tp2658
Rp2659
sg16
g17
ssI158
(dp2660
g3
S'EURJPY'
p2661
sg5
g6
(g10
S"'\xac\x98\xad\xb8\xa7`@"
p2662
tp2663
Rp2664
sg16
g17
ssI161
(dp2665
g3
S'EURJPY'
p2666
sg5
g6
(g10
S'[\x9b\xd56{\xb2`@'
p2667
tp2668
Rp2669
sg16
g33
ssI163
(dp2670
g3
S'EURJPY'
p2671
sg5
g6
(g10
S'T8m\x94O\xa3`@'
p2672
tp2673
Rp2674
sg16
g17
ssI164
(dp2675
g3
S'EURJPY'
p2676
sg5
g6
(g10
S'G\r\x98\xa8\xd7\x89`@'
p2677
tp2678
Rp2679
sg16
g17
ssI166
(dp2680
g3
S'EURJPY'
p2681
sg5
g6
(g10
S'\xbcW\xf5\xc0\xc0o`@'
p2682
tp2683
Rp2684
sg16
g17
ssI168
(dp2685
g3
S'EURJPY'
p2686
sg5
g6
(g10
S'5\x94\x99\x82&<`@'
p2687
tp2688
Rp2689
sg16
g17
ssI170
(dp2690
g3
S'EURJPY'
p2691
sg5
g6
(g10
S'\x08t\xcf\x91I5`@'
p2692
tp2693
Rp2694
sg16
g17
ssI171
(dp2695
g3
S'EURJPY'
p2696
sg5
g6
(g10
S'\x0fS\x93\xbbB(`@'
p2697
tp2698
Rp2699
sg16
g33
ssI173
(dp2700
g3
S'EURJPY'
p2701
sg5
g6
(g10
S'\x97\xfa\n \x84\r`@'
p2702
tp2703
Rp2704
sg16
g33
ssI174
(dp2705
g3
S'EURJPY'
p2706
sg5
g6
(g10
S'\x83p\xb9\xbc,\x1c`@'
p2707
tp2708
Rp2709
sg16
g33
ssI178
(dp2710
g3
S'EURJPY'
p2711
sg5
g6
(g10
S'\x96\xdb\x9f-\xe7 `@'
p2712
tp2713
Rp2714
sg16
g33
ssI179
(dp2715
g3
S'EURJPY'
p2716
sg5
g6
(g10
S'\xcb\xef\x9e\xdbx5`@'
p2717
tp2718
Rp2719
sg16
g33
ssI180
(dp2720
g3
S'EURJPY'
p2721
sg5
g6
(g10
S's[\x13\x8c\x16P`@'
p2722
tp2723
Rp2724
sg16
g33
ssI181
(dp2725
g3
S'EURJPY'
p2726
sg5
g6
(g10
S'\xc4\xa9\x14/_M`@'
p2727
tp2728
Rp2729
sg16
g33
ssI186
(dp2730
g3
S'EURJPY'
p2731
sg5
g6
(g10
S'\xfb1\x9f+\xe0^`@'
p2732
tp2733
Rp2734
sg16
g33
ssI187
(dp2735
g3
S'EURJPY'
p2736
sg5
g6
(g10
S'L\xd6\x90\xad\xbb``@'
p2737
tp2738
Rp2739
sg16
g17
ssI189
(dp2740
g3
S'EURJPY'
p2741
sg5
g6
(g10
S'\xe9>Hw\xfdL`@'
p2742
tp2743
Rp2744
sg16
g33
ssI190
(dp2745
g3
S'EURJPY'
p2746
sg5
g6
(g10
S'p\xd9\x0e\x1d\xaaB`@'
p2747
tp2748
Rp2749
sg16
g33
ssI193
(dp2750
g3
S'EURJPY'
p2751
sg5
g6
(g10
S':,\xdc\x13+u`@'
p2752
tp2753
Rp2754
sg16
g33
ssI194
(dp2755
g3
S'EURJPY'
p2756
sg5
g6
(g10
S'R\xb2\xa8\xc47z`@'
p2757
tp2758
Rp2759
sg16
g17
ssI195
(dp2760
g3
S'EURJPY'
p2761
sg5
g6
(g10
S'\xe5\x9c\x12;\xc9\x92`@'
p2762
tp2763
Rp2764
sg16
g17
ssI196
(dp2765
g3
S'EURJPY'
p2766
sg5
g6
(g10
S'(\xa0\xa9\xbbn\xac`@'
p2767
tp2768
Rp2769
sg16
g17
ssI199
(dp2770
g3
S'EURJPY'
p2771
sg5
g6
(g10
S"'T\x02\xf80\xa1`@"
p2772
tp2773
Rp2774
sg16
g33
ssI200
(dp2775
g3
S'EURJPY'
p2776
sg5
g6
(g10
S'\xb6\xb5:qV\xb4`@'
p2777
tp2778
Rp2779
sg16
g17
ssI201
(dp2780
g3
S'EURJPY'
p2781
sg5
g6
(g10
S'\xa0}(\x88\x15\xa6`@'
p2782
tp2783
Rp2784
sg16
g17
ssI206
(dp2785
g3
S'EURJPY'
p2786
sg5
g6
(g10
S'\x9fs\x88\x0cq\xb7`@'
p2787
tp2788
Rp2789
sg16
g33
ssI208
(dp2790
g3
S'EURJPY'
p2791
sg5
g6
(g10
S'2(\xc8\xedj\xa8`@'
p2792
tp2793
Rp2794
sg16
g17
ssI209
(dp2795
g3
S'EURJPY'
p2796
sg5
g6
(g10
S'G\xe1\x97\xd0\xe7\xb6`@'
p2797
tp2798
Rp2799
sg16
g17
ssI217
(dp2800
g3
S'EURJPY'
p2801
sg5
g6
(g10
S'\x1a\x81\xb3\xa9\xe1\x95`@'
p2802
tp2803
Rp2804
sg16
g17
ssI218
(dp2805
g3
S'EURJPY'
p2806
sg5
g6
(g10
S'n\xd9~\xd7&\x94`@'
p2807
tp2808
Rp2809
sg16
g17
ssI219
(dp2810
g3
S'EURJPY'
p2811
sg5
g6
(g10
S'\x00^\xa1\xa4\x7f\x8b`@'
p2812
tp2813
Rp2814
sg16
g17
ssI220
(dp2815
g3
S'EURJPY'
p2816
sg5
g6
(g10
S'g\xe3h<Uo`@'
p2817
tp2818
Rp2819
sg16
g17
ssI221
(dp2820
g3
S'EURJPY'
p2821
sg5
g6
(g10
S'\xe2\x13\x1a6\xe2s`@'
p2822
tp2823
Rp2824
sg16
g17
ssI222
(dp2825
g3
S'EURJPY'
p2826
sg5
g6
(g10
S'a\xf0n\x84\x93M`@'
p2827
tp2828
Rp2829
sg16
g17
ssI223
(dp2830
g3
S'EURJPY'
p2831
sg5
g6
(g10
S'\x9bm@\x0faV`@'
p2832
tp2833
Rp2834
sg16
g17
ssI224
(dp2835
g3
S'EURJPY'
p2836
sg5
g6
(g10
S'\xe8\x86Dt\xf0$`@'
p2837
tp2838
Rp2839
sg16
g33
ssI225
(dp2840
g3
S'EURJPY'
p2841
sg5
g6
(g10
S'\x9a\xb3\xe1\xd1\xf0\x1f`@'
p2842
tp2843
Rp2844
sg16
g17
ssI226
(dp2845
g3
S'EURJPY'
p2846
sg5
g6
(g10
S';\xc6\x8d\xcc\xfc\x1a`@'
p2847
tp2848
Rp2849
sg16
g17
ssI229
(dp2850
g3
S'EURJPY'
p2851
sg5
g6
(g10
S'\xa9\x84<\x1b\x0f\x16`@'
p2852
tp2853
Rp2854
sg16
g33
ssI230
(dp2855
g3
S'EURJPY'
p2856
sg5
g6
(g10
S'Q\xedu\xf3\xa1\x1c`@'
p2857
tp2858
Rp2859
sg16
g17
ssI232
(dp2860
g3
S'EURJPY'
p2861
sg5
g6
(g10
S'\xc1\x7f\x169\xa1#`@'
p2862
tp2863
Rp2864
sg16
g17
ssI233
(dp2865
g3
S'EURJPY'
p2866
sg5
g6
(g10
S'a\x8d\x87\x12n\x0c`@'
p2867
tp2868
Rp2869
sg16
g33
ssI235
(dp2870
g3
S'EURJPY'
p2871
sg5
g6
(g10
S'\xcb\t\xeb\xd2g\x0c`@'
p2872
tp2873
Rp2874
sg16
g17
ssI238
(dp2875
g3
S'EURJPY'
p2876
sg5
g6
(g10
S'\\P\xbeQ\xb3\x11`@'
p2877
tp2878
Rp2879
sg16
g33
ssI240
(dp2880
g3
S'EURJPY'
p2881
sg5
g6
(g10
S'\xdc,@s-\n`@'
p2882
tp2883
Rp2884
sg16
g17
ssI241
(dp2885
g3
S'EURJPY'
p2886
sg5
g6
(g10
S'?s\xb3\xbc\xa7\xc8_@'
p2887
tp2888
Rp2889
sg16
g17
ssI243
(dp2890
g3
S'EURJPY'
p2891
sg5
g6
(g10
S"\xb1\xe7\xf1`'\x02`@"
p2892
tp2893
Rp2894
sg16
g17
ssI245
(dp2895
g3
S'EURJPY'
p2896
sg5
g6
(g10
S'A\xcc\xdeRZ\xfb_@'
p2897
tp2898
Rp2899
sg16
g33
ssI248
(dp2900
g3
S'EURJPY'
p2901
sg5
g6
(g10
S'Tp\xe5\xbd\xfc\xbb_@'
p2902
tp2903
Rp2904
sg16
g17
ssI249
(dp2905
g3
S'EURJPY'
p2906
sg5
g6
(g10
S'\xc4\\\x9df\x0b\xb2_@'
p2907
tp2908
Rp2909
sg16
g33
ssI250
(dp2910
g3
S'EURJPY'
p2911
sg5
g6
(g10
S'\x1f\xc5\xef\x80\xd7\x89_@'
p2912
tp2913
Rp2914
sg16
g17
ssI251
(dp2915
g3
S'EURJPY'
p2916
sg5
g6
(g10
S'#\x97E\xcd\xd9\x7f_@'
p2917
tp2918
Rp2919
sg16
g33
ssI254
(dp2920
g3
S'EURJPY'
p2921
sg5
g6
(g10
S'\x88\xdc\xec\xc7K!_@'
p2922
tp2923
Rp2924
sg16
g17
ssI256
(dp2925
g3
S'EURJPY'
p2926
sg5
g6
(g10
S'\xbc\xc8\x19\x95n\x9c_@'
p2927
tp2928
Rp2929
sg16
g33
ssI257
(dp2930
g3
S'EURJPY'
p2931
sg5
g6
(g10
S'\x80\x06\xf1*)\x8a_@'
p2932
tp2933
Rp2934
sg16
g17
ssI258
(dp2935
g3
S'EURJPY'
p2936
sg5
g6
(g10
S'\x84\xc7Ug$<_@'
p2937
tp2938
Rp2939
sg16
g17
ssI261
(dp2940
g3
S'EURJPY'
p2941
sg5
g6
(g10
S'(\\NE\xc3\x11_@'
p2942
tp2943
Rp2944
sg16
g17
ssI262
(dp2945
g3
S'EURJPY'
p2946
sg5
g6
(g10
S'>\xe3\x1c~\xc1-_@'
p2947
tp2948
Rp2949
sg16
g33
ssI263
(dp2950
g3
S'EURJPY'
p2951
sg5
g6
(g10
S'?\xdf\xe8\xc0b\x18_@'
p2952
tp2953
Rp2954
sg16
g33
ssI269
(dp2955
g3
S'EURJPY'
p2956
sg5
g6
(g10
S'L\xdb\xa6\xbf \x96_@'
p2957
tp2958
Rp2959
sg16
g17
ssI270
(dp2960
g3
S'EURJPY'
p2961
sg5
g6
(g10
S'\x9e%mU\xf9\xd7_@'
p2962
tp2963
Rp2964
sg16
g33
ssI271
(dp2965
g3
S'EURJPY'
p2966
sg5
g6
(g10
S'\x88\rt\xe9\xed\xa2_@'
p2967
tp2968
Rp2969
sg16
g17
ssI273
(dp2970
g3
S'EURJPY'
p2971
sg5
g6
(g10
S'\x12\xde-\xb2\x1fH_@'
p2972
tp2973
Rp2974
sg16
g17
ssI274
(dp2975
g3
S'EURJPY'
p2976
sg5
g6
(g10
S'\x11U8\xe8\xbc\x1f_@'
p2977
tp2978
Rp2979
sg16
g17
ssI275
(dp2980
g3
S'EURJPY'
p2981
sg5
g6
(g10
S's\xca\xab\x14\xb5\x0c_@'
p2982
tp2983
Rp2984
sg16
g33
ssI276
(dp2985
g3
S'EURJPY'
p2986
sg5
g6
(g10
S'\xa0\xd4o\x99V\xf0^@'
p2987
tp2988
Rp2989
sg16
g17
ssI278
(dp2990
g3
S'EURJPY'
p2991
sg5
g6
(g10
S'k\xa0\x8b\xf0^\xce^@'
p2992
tp2993
Rp2994
sg16
g17
ssI279
(dp2995
g3
S'EURJPY'
p2996
sg5
g6
(g10
S'\xba\x0f\xf89\xbd\x01_@'
p2997
tp2998
Rp2999
sg16
g33
ssI280
(dp3000
g3
S'EURJPY'
p3001
sg5
g6
(g10
S'$/\x08\xcd\xc7\x08_@'
p3002
tp3003
Rp3004
sg16
g33
ssI281
(dp3005
g3
S'EURJPY'
p3006
sg5
g6
(g10
S'+v\x1b\x0e\x9b\xe3^@'
p3007
tp3008
Rp3009
sg16
g33
ssI282
(dp3010
g3
S'EURJPY'
p3011
sg5
g6
(g10
S'v\x94\x11v\xae0_@'
p3012
tp3013
Rp3014
sg16
g17
ssI284
(dp3015
g3
S'EURJPY'
p3016
sg5
g6
(g10
S'\x9f\x8bR\xaa53_@'
p3017
tp3018
Rp3019
sg16
g17
ssI286
(dp3020
g3
S'EURJPY'
p3021
sg5
g6
(g10
S'_\xe0\xf5\xa9\x8c\x04_@'
p3022
tp3023
Rp3024
sg16
g33
ssI289
(dp3025
g3
S'EURJPY'
p3026
sg5
g6
(g10
S'\x14\x1f\xaf\x14\x05\xa7^@'
p3027
tp3028
Rp3029
sg16
g17
ssI290
(dp3030
g3
S'EURJPY'
p3031
sg5
g6
(g10
S'\x16\xa8\x96>0\x8c^@'
p3032
tp3033
Rp3034
sg16
g17
ssI291
(dp3035
g3
S'EURJPY'
p3036
sg5
g6
(g10
S'q\xcf\xb29\xec\xd3^@'
p3037
tp3038
Rp3039
sg16
g17
ssI292
(dp3040
g3
S'EURJPY'
p3041
sg5
g6
(g10
S'\x94\xe1:\xc2\xb1\xd9^@'
p3042
tp3043
Rp3044
sg16
g33
ssI295
(dp3045
g3
S'EURJPY'
p3046
sg5
g6
(g10
S'\xa2\xe0\x8c,\xebu^@'
p3047
tp3048
Rp3049
sg16
g33
ssI296
(dp3050
g3
S'EURJPY'
p3051
sg5
g6
(g10
S')\xdf\xc5\xebQg^@'
p3052
tp3053
Rp3054
sg16
g17
ssI297
(dp3055
g3
S'EURJPY'
p3056
sg5
g6
(g10
S'\x8b\xa2*\xda\xff\x89^@'
p3057
tp3058
Rp3059
sg16
g17
ssI299
(dp3060
g3
S'EURJPY'
p3061
sg5
g6
(g10
S'3\x82\xc0\xa8\xef\xe8^@'
p3062
tp3063
Rp3064
sg16
g17
ssI300
(dp3065
g3
S'EURJPY'
p3066
sg5
g6
(g10
S'\xbf\x83;&\x1e\xf3^@'
p3067
tp3068
Rp3069
sg16
g33
ssI301
(dp3070
g3
S'EURJPY'
p3071
sg5
g6
(g10
S'\t\n\xe0\x844\t_@'
p3072
tp3073
Rp3074
sg16
g17
ssI303
(dp3075
g3
S'EURJPY'
p3076
sg5
g6
(g10
S'\xa5C+\x90\xb8(_@'
p3077
tp3078
Rp3079
sg16
g17
ssI304
(dp3080
g3
S'EURJPY'
p3081
sg5
g6
(g10
S'\xe3\x1b\xe3\xdfq(_@'
p3082
tp3083
Rp3084
sg16
g33
ssI305
(dp3085
g3
S'EURJPY'
p3086
sg5
g6
(g10
S'\x97\xa8\xac<S\xe7^@'
p3087
tp3088
Rp3089
sg16
g17
ssI309
(dp3090
g3
S'EURJPY'
p3091
sg5
g6
(g10
S'\x7f\xdf\xb4:\xf9\xfc^@'
p3092
tp3093
Rp3094
sg16
g17
ssI312
(dp3095
g3
S'EURJPY'
p3096
sg5
g6
(g10
S'\xbcs\xfd*\xc7`^@'
p3097
tp3098
Rp3099
sg16
g33
ssI313
(dp3100
g3
S'EURJPY'
p3101
sg5
g6
(g10
S'\xb3acI\xf2z^@'
p3102
tp3103
Rp3104
sg16
g17
ssI314
(dp3105
g3
S'EURJPY'
p3106
sg5
g6
(g10
S'M\xfd7px\x8a^@'
p3107
tp3108
Rp3109
sg16
g33
ssI315
(dp3110
g3
S'EURJPY'
p3111
sg5
g6
(g10
S'\x00`\xdfF5\xa2^@'
p3112
tp3113
Rp3114
sg16
g17
ssI316
(dp3115
g3
S'EURJPY'
p3116
sg5
g6
(g10
S'R\xae\xa4\xed8H^@'
p3117
tp3118
Rp3119
sg16
g17
ssI318
(dp3120
g3
S'EURJPY'
p3121
sg5
g6
(g10
S'L\xfeQhNn^@'
p3122
tp3123
Rp3124
sg16
g17
ssI319
(dp3125
g3
S'EURJPY'
p3126
sg5
g6
(g10
S'\xbak\xf3"&3^@'
p3127
tp3128
Rp3129
sg16
g17
ssI320
(dp3130
g3
S'EURJPY'
p3131
sg5
g6
(g10
S'\x8b\x84\x86\x90BR^@'
p3132
tp3133
Rp3134
sg16
g17
ssI322
(dp3135
g3
S'EURJPY'
p3136
sg5
g6
(g10
S'\x06V\xa2\xeb\xafR^@'
p3137
tp3138
Rp3139
sg16
g33
ssI323
(dp3140
g3
S'EURJPY'
p3141
sg5
g6
(g10
S'\xa5\xef2\xc1\x8fk^@'
p3142
tp3143
Rp3144
sg16
g33
ssI325
(dp3145
g3
S'EURJPY'
p3146
sg5
g6
(g10
S'\x9e\x17o{\x83(^@'
p3147
tp3148
Rp3149
sg16
g17
ssI326
(dp3150
g3
S'EURJPY'
p3151
sg5
g6
(g10
S'\xd6q\xd2\x17\x0f,^@'
p3152
tp3153
Rp3154
sg16
g33
ssI328
(dp3155
g3
S'EURJPY'
p3156
sg5
g6
(g10
S'*`\xfe\xafDr^@'
p3157
tp3158
Rp3159
sg16
g17
ssI332
(dp3160
g3
S'EURJPY'
p3161
sg5
g6
(g10
S'\x0c\xb2\x19#\x94\xee^@'
p3162
tp3163
Rp3164
sg16
g17
ssI334
(dp3165
g3
S'EURJPY'
p3166
sg5
g6
(g10
S'\n6\x047\xc1\xe3^@'
p3167
tp3168
Rp3169
sg16
g17
ssI336
(dp3170
g3
S'EURJPY'
p3171
sg5
g6
(g10
S'\t\x80,\xaf\x18\t_@'
p3172
tp3173
Rp3174
sg16
g17
ssI337
(dp3175
g3
S'EURJPY'
p3176
sg5
g6
(g10
S'\xed\x7f\xdd\x9d:\x11_@'
p3177
tp3178
Rp3179
sg16
g33
ssI340
(dp3180
g3
S'EURJPY'
p3181
sg5
g6
(g10
S'\xce-\x15><\xc8^@'
p3182
tp3183
Rp3184
sg16
g17
ssI342
(dp3185
g3
S'EURJPY'
p3186
sg5
g6
(g10
S'\xaa\x0e\x96Cv\xc6^@'
p3187
tp3188
Rp3189
sg16
g17
ssI344
(dp3190
g3
S'EURJPY'
p3191
sg5
g6
(g10
S'!\xa8\xf2\x9d\x7f\xa8^@'
p3192
tp3193
Rp3194
sg16
g17
ssI347
(dp3195
g3
S'EURJPY'
p3196
sg5
g6
(g10
S'MFS\xff\xcd%^@'
p3197
tp3198
Rp3199
sg16
g33
ssI348
(dp3200
g3
S'EURJPY'
p3201
sg5
g6
(g10
S':\xeb\x98\xf2w`^@'
p3202
tp3203
Rp3204
sg16
g17
ssI349
(dp3205
g3
S'EURJPY'
p3206
sg5
g6
(g10
S'\x07\xa6\x00\xf6\xbeE^@'
p3207
tp3208
Rp3209
sg16
g17
ssI350
(dp3210
g3
S'EURJPY'
p3211
sg5
g6
(g10
S'\xf9\x18\xa5\xd0\x05\x91^@'
p3212
tp3213
Rp3214
sg16
g17
ssI356
(dp3215
g3
S'EURJPY'
p3216
sg5
g6
(g10
S'\x06v\xcf\x1d-#^@'
p3217
tp3218
Rp3219
sg16
g17
ssI360
(dp3220
g3
S'EURJPY'
p3221
sg5
g6
(g10
S'\xf7\xe2\xd8\xe5\x9a\x10^@'
p3222
tp3223
Rp3224
sg16
g33
ssI365
(dp3225
g3
S'EURJPY'
p3226
sg5
g6
(g10
S'\x86\xb3\xfe!\xd5\xa2^@'
p3227
tp3228
Rp3229
sg16
g17
ssI366
(dp3230
g3
S'EURJPY'
p3231
sg5
g6
(g10
S',lc;\x02\xa2^@'
p3232
tp3233
Rp3234
sg16
g33
ssI368
(dp3235
g3
S'EURJPY'
p3236
sg5
g6
(g10
S'`[/m\xd7\xe9^@'
p3237
tp3238
Rp3239
sg16
g33
ssI369
(dp3240
g3
S'EURJPY'
p3241
sg5
g6
(g10
S'\xf4A>\x1f\xb1\xce^@'
p3242
tp3243
Rp3244
sg16
g33
ssI371
(dp3245
g3
S'EURJPY'
p3246
sg5
g6
(g10
S'\xc3\xea\x8d,n,_@'
p3247
tp3248
Rp3249
sg16
g33
ssI372
(dp3250
g3
S'EURJPY'
p3251
sg5
g6
(g10
S'G\xeb_\xf7\n\x1c_@'
p3252
tp3253
Rp3254
sg16
g17
ssI376
(dp3255
g3
S'EURJPY'
p3256
sg5
g6
(g10
S'\xe9\xd2\xd1\xb9\x9e\xd2^@'
p3257
tp3258
Rp3259
sg16
g33
ssI377
(dp3260
g3
S'EURJPY'
p3261
sg5
g6
(g10
S'g\x92\x80\xe7\xcf\xc3^@'
p3262
tp3263
Rp3264
sg16
g33
ssI380
(dp3265
g3
S'EURJPY'
p3266
sg5
g6
(g10
S'\xe6\x9a\xb4\xdb1\xd8^@'
p3267
tp3268
Rp3269
sg16
g17
ssI386
(dp3270
g3
S'EURJPY'
p3271
sg5
g6
(g10
S'\x8d\xfd\x8f?\x91p^@'
p3272
tp3273
Rp3274
sg16
g17
ssI387
(dp3275
g3
S'EURJPY'
p3276
sg5
g6
(g10
S' o\xde\x1128^@'
p3277
tp3278
Rp3279
sg16
g33
ssI388
(dp3280
g3
S'EURJPY'
p3281
sg5
g6
(g10
S'w^\x91`KK^@'
p3282
tp3283
Rp3284
sg16
g33
ssI389
(dp3285
g3
S'EURJPY'
p3286
sg5
g6
(g10
S'\xd8+>\xcc\x9fR^@'
p3287
tp3288
Rp3289
sg16
g33
ssI390
(dp3290
g3
S'EURJPY'
p3291
sg5
g6
(g10
S"d\xcb'\xcf\x81-^@"
p3292
tp3293
Rp3294
sg16
g33
ssI393
(dp3295
g3
S'EURJPY'
p3296
sg5
g6
(g10
S'w9\x17c$\x02^@'
p3297
tp3298
Rp3299
sg16
g17
ssI396
(dp3300
g3
S'EURJPY'
p3301
sg5
g6
(g10
S'\x01\x05\x02w\xd5P^@'
p3302
tp3303
Rp3304
sg16
g33
ssI397
(dp3305
g3
S'EURJPY'
p3306
sg5
g6
(g10
S'\xb5q\x9d6\xf64^@'
p3307
tp3308
Rp3309
sg16
g17
ssI398
(dp3310
g3
S'EURJPY'
p3311
sg5
g6
(g10
S'\x89\x86  fV^@'
p3312
tp3313
Rp3314
sg16
g33
ssI401
(dp3315
g3
S'EURJPY'
p3316
sg5
g6
(g10
S't\xa0\xda\xf4\x9dJ^@'
p3317
tp3318
Rp3319
sg16
g33
ssI403
(dp3320
g3
S'EURJPY'
p3321
sg5
g6
(g10
S'jLI\x1bGi^@'
p3322
tp3323
Rp3324
sg16
g17
ssI404
(dp3325
g3
S'EURJPY'
p3326
sg5
g6
(g10
S'\xa9\xb7\xd32\tP^@'
p3327
tp3328
Rp3329
sg16
g33
ssI406
(dp3330
g3
S'EURJPY'
p3331
sg5
g6
(g10
S'\xbc[\xcf\xfe\xe8\xa5^@'
p3332
tp3333
Rp3334
sg16
g17
ssI409
(dp3335
g3
S'EURJPY'
p3336
sg5
g6
(g10
S'g\xf4:\xd5j5^@'
p3337
tp3338
Rp3339
sg16
g33
ssI410
(dp3340
g3
S'EURJPY'
p3341
sg5
g6
(g10
S'\xe6\xbe=J`%^@'
p3342
tp3343
Rp3344
sg16
g33
ssI411
(dp3345
g3
S'EURJPY'
p3346
sg5
g6
(g10
S'\xc1\xa4\xb7X\x02\x05^@'
p3347
tp3348
Rp3349
sg16
g17
ssI413
(dp3350
g3
S'EURJPY'
p3351
sg5
g6
(g10
S"\xbei\x98'\xd66^@"
p3352
tp3353
Rp3354
sg16
g17
ssI414
(dp3355
g3
S'EURJPY'
p3356
sg5
g6
(g10
S':=\x05\x1c\x1ey^@'
p3357
tp3358
Rp3359
sg16
g33
ssI415
(dp3360
g3
S'EURJPY'
p3361
sg5
g6
(g10
S'*\x13\xb6)N\x88^@'
p3362
tp3363
Rp3364
sg16
g17
ssI416
(dp3365
g3
S'EURJPY'
p3366
sg5
g6
(g10
S'z\xaey\xbdO\x9e^@'
p3367
tp3368
Rp3369
sg16
g17
ssI417
(dp3370
g3
S'EURJPY'
p3371
sg5
g6
(g10
S'>h\r\n\x9d\xb5^@'
p3372
tp3373
Rp3374
sg16
g33
ssI423
(dp3375
g3
S'EURJPY'
p3376
sg5
g6
(g10
S'\xb1"\x13\xe9\xf6\t_@'
p3377
tp3378
Rp3379
sg16
g17
ssI426
(dp3380
g3
S'EURJPY'
p3381
sg5
g6
(g10
S'\xb2\xb2\xe33\xdd\xe7^@'
p3382
tp3383
Rp3384
sg16
g17
ssI430
(dp3385
g3
S'EURJPY'
p3386
sg5
g6
(g10
S'\xf4\x17\xf7_\\\xa2^@'
p3387
tp3388
Rp3389
sg16
g17
ssI435
(dp3390
g3
S'EURJPY'
p3391
sg5
g6
(g10
S'4\xdeM\x13Za^@'
p3392
tp3393
Rp3394
sg16
g33
ssI437
(dp3395
g3
S'EURJPY'
p3396
sg5
g6
(g10
S'^\xeb\x14 Di^@'
p3397
tp3398
Rp3399
sg16
g33
ssI439
(dp3400
g3
S'EURJPY'
p3401
sg5
g6
(g10
S'\xc5\xa7\xea\xd4\x13+^@'
p3402
tp3403
Rp3404
sg16
g33
ssI440
(dp3405
g3
S'EURJPY'
p3406
sg5
g6
(g10
S'\xd8\xbf\x07wl6^@'
p3407
tp3408
Rp3409
sg16
g17
ssI443
(dp3410
g3
S'EURJPY'
p3411
sg5
g6
(g10
S')\xd3\x08\x07n\x13^@'
p3412
tp3413
Rp3414
sg16
g33
ssI444
(dp3415
g3
S'EURJPY'
p3416
sg5
g6
(g10
S'h6\xf3\xb7sW^@'
p3417
tp3418
Rp3419
sg16
g17
ssI445
(dp3420
g3
S'EURJPY'
p3421
sg5
g6
(g10
S'\r;3\x15\xae\x8e^@'
p3422
tp3423
Rp3424
sg16
g17
ssI446
(dp3425
g3
S'EURJPY'
p3426
sg5
g6
(g10
S'i\x9fn\r\x01\xcf^@'
p3427
tp3428
Rp3429
sg16
g33
ssI448
(dp3430
g3
S'EURJPY'
p3431
sg5
g6
(g10
S'\xe5\x80Z| \xd8^@'
p3432
tp3433
Rp3434
sg16
g17
ssI451
(dp3435
g3
S'EURJPY'
p3436
sg5
g6
(g10
S'\xb6\x80\x9b\xdd0A_@'
p3437
tp3438
Rp3439
sg16
g17
ssI452
(dp3440
g3
S'EURJPY'
p3441
sg5
g6
(g10
S'\x92y\xd1Z\x94c_@'
p3442
tp3443
Rp3444
sg16
g33
ssI453
(dp3445
g3
S'EURJPY'
p3446
sg5
g6
(g10
S'\xceV!\xd7!]_@'
p3447
tp3448
Rp3449
sg16
g33
ssI455
(dp3450
g3
S'EURJPY'
p3451
sg5
g6
(g10
S'6r\xdev\xdf:_@'
p3452
tp3453
Rp3454
sg16
g17
ssI456
(dp3455
g3
S'EURJPY'
p3456
sg5
g6
(g10
S'\xbb\xc0\xc4\x80\xc0\xf0^@'
p3457
tp3458
Rp3459
sg16
g17
ssI458
(dp3460
g3
S'EURJPY'
p3461
sg5
g6
(g10
S'\x83:{\xab\x04\x1d_@'
p3462
tp3463
Rp3464
sg16
g17
ssI460
(dp3465
g3
S'EURJPY'
p3466
sg5
g6
(g10
S'k\xd1\x81\x8f`\xe6^@'
p3467
tp3468
Rp3469
sg16
g33
ssI461
(dp3470
g3
S'EURJPY'
p3471
sg5
g6
(g10
S'a\x1ef=8\xe6^@'
p3472
tp3473
Rp3474
sg16
g17
ssI462
(dp3475
g3
S'EURJPY'
p3476
sg5
g6
(g10
S'\x1b\xb8YW\x81\xf8^@'
p3477
tp3478
Rp3479
sg16
g33
ssI466
(dp3480
g3
S'EURJPY'
p3481
sg5
g6
(g10
S'\xea\xfd\xe1a\x89\xdc^@'
p3482
tp3483
Rp3484
sg16
g17
ssI467
(dp3485
g3
S'EURJPY'
p3486
sg5
g6
(g10
S'\xc1c\x91^\xd8\x0c_@'
p3487
tp3488
Rp3489
sg16
g17
ssI472
(dp3490
g3
S'EURJPY'
p3491
sg5
g6
(g10
S'\x0b\xba\x11%">_@'
p3492
tp3493
Rp3494
sg16
g33
ssI473
(dp3495
g3
S'EURJPY'
p3496
sg5
g6
(g10
S'\x83\xeau~1$_@'
p3497
tp3498
Rp3499
sg16
g17
ssI477
(dp3500
g3
S'EURJPY'
p3501
sg5
g6
(g10
S'\xbcNZ\x03\xbd\xe9^@'
p3502
tp3503
Rp3504
sg16
g33
ssI478
(dp3505
g3
S'EURJPY'
p3506
sg5
g6
(g10
S'nD\x83\xdc7\xfc^@'
p3507
tp3508
Rp3509
sg16
g33
ssI480
(dp3510
g3
S'EURJPY'
p3511
sg5
g6
(g10
S'o%\xc6\xab\xaa\xfe^@'
p3512
tp3513
Rp3514
sg16
g17
ssI482
(dp3515
g3
S'EURJPY'
p3516
sg5
g6
(g10
S'\x03\xd4\x8eD\xa6\xec^@'
p3517
tp3518
Rp3519
sg16
g17
ssI484
(dp3520
g3
S'EURJPY'
p3521
sg5
g6
(g10
S'S\rD+\xa4\xfd^@'
p3522
tp3523
Rp3524
sg16
g33
ssI488
(dp3525
g3
S'EURJPY'
p3526
sg5
g6
(g10
S'\x14\x05\xa5\xcd\xb1N_@'
p3527
tp3528
Rp3529
sg16
g17
ssI489
(dp3530
g3
S'EURJPY'
p3531
sg5
g6
(g10
S'@NyS\xe7E_@'
p3532
tp3533
Rp3534
sg16
g33
ssI490
(dp3535
g3
S'EURJPY'
p3536
sg5
g6
(g10
S'4\xe8\xad\xfc\x7f\x84_@'
p3537
tp3538
Rp3539
sg16
g17
ssI491
(dp3540
g3
S'EURJPY'
p3541
sg5
g6
(g10
S"\x1a\xfa\xe2Q'\x85_@"
p3542
tp3543
Rp3544
sg16
g17
ssI492
(dp3545
g3
S'EURJPY'
p3546
sg5
g6
(g10
S'\xce\xca\x00\xf2v\x99_@'
p3547
tp3548
Rp3549
sg16
g33
ssI494
(dp3550
g3
S'EURJPY'
p3551
sg5
g6
(g10
S'\xe7R\x8d\xf7\x83\x8b_@'
p3552
tp3553
Rp3554
sg16
g17
ssI496
(dp3555
g3
S'EURJPY'
p3556
sg5
g6
(g10
S'\x1d\x90\x81d\xaek_@'
p3557
tp3558
Rp3559
sg16
g17
ssI498
(dp3560
g3
S'EURJPY'
p3561
sg5
g6
(g10
S'y\xde\x86\x86\x8e\xcd_@'
p3562
tp3563
Rp3564
sg16
g17
ssI500
(dp3565
g3
S'EURJPY'
p3566
sg5
g6
(g10
S'\x13{7\x83\xa5\xf7_@'
p3567
tp3568
Rp3569
sg16
g17
ssI501
(dp3570
g3
S'EURJPY'
p3571
sg5
g6
(g10
S'`F\xc7\xb2d\xdb_@'
p3572
tp3573
Rp3574
sg16
g33
ssI506
(dp3575
g3
S'EURJPY'
p3576
sg5
g6
(g10
S'"\xc7\x029\xe5\x16_@'
p3577
tp3578
Rp3579
sg16
g17
ssI508
(dp3580
g3
S'EURJPY'
p3581
sg5
g6
(g10
S'k\x08\xbb\x1e\xca\xe2^@'
p3582
tp3583
Rp3584
sg16
g17
ssI509
(dp3585
g3
S'EURJPY'
p3586
sg5
g6
(g10
S'\xfc\xa7\xa3\xfaA\xe0^@'
p3587
tp3588
Rp3589
sg16
g17
ssI510
(dp3590
g3
S'EURJPY'
p3591
sg5
g6
(g10
S'\xf6\xdaxN\xd8\x9d^@'
p3592
tp3593
Rp3594
sg16
g33
ssI513
(dp3595
g3
S'EURJPY'
p3596
sg5
g6
(g10
S'\x0eP\x85_\xb7\x7f^@'
p3597
tp3598
Rp3599
sg16
g17
ssI514
(dp3600
g3
S'EURJPY'
p3601
sg5
g6
(g10
S'\x14u\x1b\xbaUs^@'
p3602
tp3603
Rp3604
sg16
g33
ssI516
(dp3605
g3
S'EURJPY'
p3606
sg5
g6
(g10
S'\x840\xe3\xac\x9a\x8c^@'
p3607
tp3608
Rp3609
sg16
g17
ssI517
(dp3610
g3
S'EURJPY'
p3611
sg5
g6
(g10
S"\xa2'!\x1b\x89y^@"
p3612
tp3613
Rp3614
sg16
g33
ssI519
(dp3615
g3
S'EURJPY'
p3616
sg5
g6
(g10
S'T\xab\xb5\xcc3\xdb^@'
p3617
tp3618
Rp3619
sg16
g33
ssI521
(dp3620
g3
S'EURJPY'
p3621
sg5
g6
(g10
S'\x0f9\xb7dO\xda^@'
p3622
tp3623
Rp3624
sg16
g17
ssI525
(dp3625
g3
S'EURJPY'
p3626
sg5
g6
(g10
S'XE=X\xdb\xfa^@'
p3627
tp3628
Rp3629
sg16
g17
ssI530
(dp3630
g3
S'EURJPY'
p3631
sg5
g6
(g10
S'0\xa4?\x01x\xaf^@'
p3632
tp3633
Rp3634
sg16
g33
ssI531
(dp3635
g3
S'EURJPY'
p3636
sg5
g6
(g10
S'\x01e\xb7\x8d\xd6\x94^@'
p3637
tp3638
Rp3639
sg16
g17
ssI532
(dp3640
g3
S'EURJPY'
p3641
sg5
g6
(g10
S'[8\xaa\xe6&\x86^@'
p3642
tp3643
Rp3644
sg16
g33
ssI533
(dp3645
g3
S'EURJPY'
p3646
sg5
g6
(g10
S'\xe9-5h\xaa\x89^@'
p3647
tp3648
Rp3649
sg16
g33
ssI534
(dp3650
g3
S'EURJPY'
p3651
sg5
g6
(g10
S'\xc9o\x97\xd2\x13s^@'
p3652
tp3653
Rp3654
sg16
g33
ssI535
(dp3655
g3
S'EURJPY'
p3656
sg5
g6
(g10
S'\x07\xa9\xde\xcd\x15H^@'
p3657
tp3658
Rp3659
sg16
g33
ssI536
(dp3660
g3
S'EURJPY'
p3661
sg5
g6
(g10
S'\xf8\xe7\xe2\xd7\xa2?^@'
p3662
tp3663
Rp3664
sg16
g33
ssI537
(dp3665
g3
S'EURJPY'
p3666
sg5
g6
(g10
S'B2#8BY^@'
p3667
tp3668
Rp3669
sg16
g33
ssI538
(dp3670
g3
S'EURJPY'
p3671
sg5
g6
(g10
S'\xe0u\x861Fr^@'
p3672
tp3673
Rp3674
sg16
g33
ssI539
(dp3675
g3
S'EURJPY'
p3676
sg5
g6
(g10
S'N\xa4`G\x80w^@'
p3677
tp3678
Rp3679
sg16
g33
ssI540
(dp3680
g3
S'EURJPY'
p3681
sg5
g6
(g10
S'\x1ar\x00\x82N|^@'
p3682
tp3683
Rp3684
sg16
g17
ssI541
(dp3685
g3
S'EURJPY'
p3686
sg5
g6
(g10
S'\x1ec\xcd\x98\xfa\xc7^@'
p3687
tp3688
Rp3689
sg16
g33
ssI542
(dp3690
g3
S'EURJPY'
p3691
sg5
g6
(g10
S'\x91PH\xaa\x1b\x80^@'
p3692
tp3693
Rp3694
sg16
g17
ssI543
(dp3695
g3
S'EURJPY'
p3696
sg5
g6
(g10
S'\x95T\xaf\xa4\x1d\x98^@'
p3697
tp3698
Rp3699
sg16
g33
ssI546
(dp3700
g3
S'EURJPY'
p3701
sg5
g6
(g10
S'\xe1*\xdc\x91#\xc5^@'
p3702
tp3703
Rp3704
sg16
g33
ssI548
(dp3705
g3
S'EURJPY'
p3706
sg5
g6
(g10
S'\xadH\x02\x13\x02\x9b^@'
p3707
tp3708
Rp3709
sg16
g33
ssI549
(dp3710
g3
S'EURJPY'
p3711
sg5
g6
(g10
S'-e\xd4\x05\xd3\x8e^@'
p3712
tp3713
Rp3714
sg16
g17
ssI550
(dp3715
g3
S'EURJPY'
p3716
sg5
g6
(g10
S'\xfb\n\xab\x8d\x05\xd9^@'
p3717
tp3718
Rp3719
sg16
g33
ssI551
(dp3720
g3
S'EURJPY'
p3721
sg5
g6
(g10
S'\x80\xba\x10R\xd4\xd4^@'
p3722
tp3723
Rp3724
sg16
g17
ssI556
(dp3725
g3
S'EURJPY'
p3726
sg5
g6
(g10
S'\xfd=,\x91lk_@'
p3727
tp3728
Rp3729
sg16
g33
ssI557
(dp3730
g3
S'EURJPY'
p3731
sg5
g6
(g10
S'\x01L\x81\xb3\xc2k_@'
p3732
tp3733
Rp3734
sg16
g17
ssI562
(dp3735
g3
S'EURJPY'
p3736
sg5
g6
(g10
S'\xa5\x1b\xbd\x84\x00\xa7_@'
p3737
tp3738
Rp3739
sg16
g33
ssI563
(dp3740
g3
S'EURJPY'
p3741
sg5
g6
(g10
S'$\xc1U_[\xe3_@'
p3742
tp3743
Rp3744
sg16
g33
ssI564
(dp3745
g3
S'EURJPY'
p3746
sg5
g6
(g10
S'\x81t\x1e\xb4\xbd\xb1_@'
p3747
tp3748
Rp3749
sg16
g33
ssI566
(dp3750
g3
S'EURJPY'
p3751
sg5
g6
(g10
S'\x7f\x10\xb9y\xfe\xea_@'
p3752
tp3753
Rp3754
sg16
g17
ssI569
(dp3755
g3
S'EURJPY'
p3756
sg5
g6
(g10
S'\xfe\x1a\xe8\x10\xce\x04`@'
p3757
tp3758
Rp3759
sg16
g17
ssI570
(dp3760
g3
S'EURJPY'
p3761
sg5
g6
(g10
S'\xf1\xa7\x80\x8a\xaa\xfe_@'
p3762
tp3763
Rp3764
sg16
g17
ssI572
(dp3765
g3
S'EURJPY'
p3766
sg5
g6
(g10
S'\xf0X\xfe\x8e4\x0e`@'
p3767
tp3768
Rp3769
sg16
g33
ssI573
(dp3770
g3
S'EURJPY'
p3771
sg5
g6
(g10
S'L\x9d\x00X\x01\x03`@'
p3772
tp3773
Rp3774
sg16
g17
ssI576
(dp3775
g3
S'EURJPY'
p3776
sg5
g6
(g10
S'\xaf\xfb\xeb:\x04\x07`@'
p3777
tp3778
Rp3779
sg16
g17
ssI577
(dp3780
g3
S'EURJPY'
p3781
sg5
g6
(g10
S'\xb6\xe5\x9deu\xdc_@'
p3782
tp3783
Rp3784
sg16
g17
ssI579
(dp3785
g3
S'EURJPY'
p3786
sg5
g6
(g10
S'\xdcW\x94\x95\x97\xae_@'
p3787
tp3788
Rp3789
sg16
g17
ssI580
(dp3790
g3
S'EURJPY'
p3791
sg5
g6
(g10
S'\x91\xea\x19\xf6j\xd9_@'
p3792
tp3793
Rp3794
sg16
g17
ssI581
(dp3795
g3
S'EURJPY'
p3796
sg5
g6
(g10
S'\x8b\xc3\x08\x95B\xda_@'
p3797
tp3798
Rp3799
sg16
g17
ssI582
(dp3800
g3
S'EURJPY'
p3801
sg5
g6
(g10
S'\xd5}\xa3\xe5R\xb0_@'
p3802
tp3803
Rp3804
sg16
g17
ssI584
(dp3805
g3
S'EURJPY'
p3806
sg5
g6
(g10
S'\xee\xa85Sf\xc4_@'
p3807
tp3808
Rp3809
sg16
g33
ssI585
(dp3810
g3
S'EURJPY'
p3811
sg5
g6
(g10
S'\xe6\xf2\xf1\x0f2\xc2_@'
p3812
tp3813
Rp3814
sg16
g17
ssI586
(dp3815
g3
S'EURJPY'
p3816
sg5
g6
(g10
S'P\xe1bJ\xb8\xb1_@'
p3817
tp3818
Rp3819
sg16
g17
ssI589
(dp3820
g3
S'EURJPY'
p3821
sg5
g6
(g10
S'\x00\x13\\>\xb5?_@'
p3822
tp3823
Rp3824
sg16
g17
ssI592
(dp3825
g3
S'EURJPY'
p3826
sg5
g6
(g10
S'\xda\xd6B\\V\x82_@'
p3827
tp3828
Rp3829
sg16
g17
ssI595
(dp3830
g3
S'EURJPY'
p3831
sg5
g6
(g10
S'XB\x01\x14\xf94_@'
p3832
tp3833
Rp3834
sg16
g33
ssI596
(dp3835
g3
S'EURJPY'
p3836
sg5
g6
(g10
S'\xda\xd4y|\x990_@'
p3837
tp3838
Rp3839
sg16
g33
ssI597
(dp3840
g3
S'EURJPY'
p3841
sg5
g6
(g10
S'\xd2Z\xef\xe4\xecC_@'
p3842
tp3843
Rp3844
sg16
g33
ssI598
(dp3845
g3
S'EURJPY'
p3846
sg5
g6
(g10
S'\x00\x95\xfc\xab\x04T_@'
p3847
tp3848
Rp3849
sg16
g33
ssI599
(dp3850
g3
S'EURJPY'
p3851
sg5
g6
(g10
S':\x12\xde\xc4\xba\x83_@'
p3852
tp3853
Rp3854
sg16
g33
ssI601
(dp3855
g3
S'EURJPY'
p3856
sg5
g6
(g10
S'6:\xf1l\x11H_@'
p3857
tp3858
Rp3859
sg16
g33
ssI602
(dp3860
g3
S'EURJPY'
p3861
sg5
g6
(g10
S'\xac\xee\xf1\x981\x96_@'
p3862
tp3863
Rp3864
sg16
g33
ssI605
(dp3865
g3
S'EURJPY'
p3866
sg5
g6
(g10
S'\x98\x88\xdd\x1a\x1b\xc8_@'
p3867
tp3868
Rp3869
sg16
g17
ssI608
(dp3870
g3
S'EURJPY'
p3871
sg5
g6
(g10
S'W\x0e\xb5T\xc8\xac_@'
p3872
tp3873
Rp3874
sg16
g17
ssI610
(dp3875
g3
S'EURJPY'
p3876
sg5
g6
(g10
S'\xc8\xf2\xf6\x8a\x8b\xbb_@'
p3877
tp3878
Rp3879
sg16
g33
ssI611
(dp3880
g3
S'EURJPY'
p3881
sg5
g6
(g10
S'\xd0\xeaI\xf9\x11\xce_@'
p3882
tp3883
Rp3884
sg16
g33
ssI612
(dp3885
g3
S'EURJPY'
p3886
sg5
g6
(g10
S'\xc0\x10\xe2\x1c\x8f\xe2_@'
p3887
tp3888
Rp3889
sg16
g33
ssI613
(dp3890
g3
S'EURJPY'
p3891
sg5
g6
(g10
S'\x9a@\xab\x02l\x9f_@'
p3892
tp3893
Rp3894
sg16
g33
ssI614
(dp3895
g3
S'EURJPY'
p3896
sg5
g6
(g10
S'\x84\xe6\x07,\xeb\xc3_@'
p3897
tp3898
Rp3899
sg16
g33
ssI615
(dp3900
g3
S'EURJPY'
p3901
sg5
g6
(g10
S'\x8dm\xa0\xcc\xc7\xf2_@'
p3902
tp3903
Rp3904
sg16
g17
ssI618
(dp3905
g3
S'EURJPY'
p3906
sg5
g6
(g10
S'lt1\xc7\x99\x07`@'
p3907
tp3908
Rp3909
sg16
g17
ssI621
(dp3910
g3
S'EURJPY'
p3911
sg5
g6
(g10
S'\xa2I9\xc9\xdc\xfd_@'
p3912
tp3913
Rp3914
sg16
g17
ssI623
(dp3915
g3
S'EURJPY'
p3916
sg5
g6
(g10
S'\xaa\x1a\x1f\x1d\x9d\x0f`@'
p3917
tp3918
Rp3919
sg16
g17
ssI624
(dp3920
g3
S'EURJPY'
p3921
sg5
g6
(g10
S'\x84D;6\x90\xff_@'
p3922
tp3923
Rp3924
sg16
g17
ssI626
(dp3925
g3
S'EURJPY'
p3926
sg5
g6
(g10
S'_C\xa3\x9e\xa7\x11`@'
p3927
tp3928
Rp3929
sg16
g17
ssI631
(dp3930
g3
S'EURJPY'
p3931
sg5
g6
(g10
S'\xff\xe0b\xdc\xa9\xa3_@'
p3932
tp3933
Rp3934
sg16
g33
ssI633
(dp3935
g3
S'EURJPY'
p3936
sg5
g6
(g10
S'\x838Co\xde\xb5_@'
p3937
tp3938
Rp3939
sg16
g33
ssI636
(dp3940
g3
S'EURJPY'
p3941
sg5
g6
(g10
S';~\x18\xae\xda\xbc_@'
p3942
tp3943
Rp3944
sg16
g33
ssI641
(dp3945
g3
S'EURJPY'
p3946
sg5
g6
(g10
S'(n\xd7\xbf\x80!`@'
p3947
tp3948
Rp3949
sg16
g33
ssI643
(dp3950
g3
S'EURJPY'
p3951
sg5
g6
(g10
S'\xaa\x1a\xfb\x11\x99@`@'
p3952
tp3953
Rp3954
sg16
g33
ssI645
(dp3955
g3
S'EURJPY'
p3956
sg5
g6
(g10
S'\xcbE\xb1\xefSL`@'
p3957
tp3958
Rp3959
sg16
g17
ssI646
(dp3960
g3
S'EURJPY'
p3961
sg5
g6
(g10
S'\x8f}\xfe\xfe\xea5`@'
p3962
tp3963
Rp3964
sg16
g17
ssI648
(dp3965
g3
S'EURJPY'
p3966
sg5
g6
(g10
S'e\xfb\xc5\x1eZ"`@'
p3967
tp3968
Rp3969
sg16
g33
ssI649
(dp3970
g3
S'EURJPY'
p3971
sg5
g6
(g10
S'c\x8d\xad\xb4\xd5.`@'
p3972
tp3973
Rp3974
sg16
g17
ssI650
(dp3975
g3
S'EURJPY'
p3976
sg5
g6
(g10
S'"\xe0\x8e>\x9d(`@'
p3977
tp3978
Rp3979
sg16
g17
ssI651
(dp3980
g3
S'EURJPY'
p3981
sg5
g6
(g10
S'\xa9\xfa\xa3\x83\xea\x17`@'
p3982
tp3983
Rp3984
sg16
g33
ssI652
(dp3985
g3
S'EURJPY'
p3986
sg5
g6
(g10
S'\xfd1\x8f\x0f\x11\x0e`@'
p3987
tp3988
Rp3989
sg16
g17
ssI653
(dp3990
g3
S'EURJPY'
p3991
sg5
g6
(g10
S'\xf8\xc1\r\xd6\xa9 `@'
p3992
tp3993
Rp3994
sg16
g17
ssI654
(dp3995
g3
S'EURJPY'
p3996
sg5
g6
(g10
S'\xc2`h\xb0\x82\x1a`@'
p3997
tp3998
Rp3999
sg16
g33
ssI657
(dp4000
g3
S'EURJPY'
p4001
sg5
g6
(g10
S'\xb9\xeb\xf7\xbcf\x94_@'
p4002
tp4003
Rp4004
sg16
g33
ssI660
(dp4005
g3
S'EURJPY'
p4006
sg5
g6
(g10
S'~\x05\xf1\x90\xba\xb6_@'
p4007
tp4008
Rp4009
sg16
g33
ssI661
(dp4010
g3
S'EURJPY'
p4011
sg5
g6
(g10
S'\x13<\x8c\x85v\x0e`@'
p4012
tp4013
Rp4014
sg16
g17
ssI662
(dp4015
g3
S'EURJPY'
p4016
sg5
g6
(g10
S'\xd5I\x1b\x06\xa6\x0c`@'
p4017
tp4018
Rp4019
sg16
g33
ssI664
(dp4020
g3
S'EURJPY'
p4021
sg5
g6
(g10
S'\xdc\\[\xb5s\x06`@'
p4022
tp4023
Rp4024
sg16
g17
ssI666
(dp4025
g3
S'EURJPY'
p4026
sg5
g6
(g10
S'\xbe\xf8\x88\xc2\xcd\xf2_@'
p4027
tp4028
Rp4029
sg16
g17
ssI667
(dp4030
g3
S'EURJPY'
p4031
sg5
g6
(g10
S'!\xfaX\xf8l\xc1_@'
p4032
tp4033
Rp4034
sg16
g17
ssI668
(dp4035
g3
S'EURJPY'
p4036
sg5
g6
(g10
S'\r\x12\x00\xf3A\xa5_@'
p4037
tp4038
Rp4039
sg16
g33
ssI669
(dp4040
g3
S'EURJPY'
p4041
sg5
g6
(g10
S'g\x8dYB\xcf\xb4_@'
p4042
tp4043
Rp4044
sg16
g33
ssI671
(dp4045
g3
S'EURJPY'
p4046
sg5
g6
(g10
S'l\xbdA\xa1\x03i_@'
p4047
tp4048
Rp4049
sg16
g17
ssI674
(dp4050
g3
S'EURJPY'
p4051
sg5
g6
(g10
S'\x1cz\xc0\t-\xa2_@'
p4052
tp4053
Rp4054
sg16
g33
ssI675
(dp4055
g3
S'EURJPY'
p4056
sg5
g6
(g10
S'\x8e\x03\xe4\xcb\xed\xa1_@'
p4057
tp4058
Rp4059
sg16
g33
ssI681
(dp4060
g3
S'EURJPY'
p4061
sg5
g6
(g10
S'j\x19\xbdUU\x82_@'
p4062
tp4063
Rp4064
sg16
g33
ssI682
(dp4065
g3
S'EURJPY'
p4066
sg5
g6
(g10
S'\xeeD\xdc\x89\xf6\xa1_@'
p4067
tp4068
Rp4069
sg16
g33
ssI683
(dp4070
g3
S'EURJPY'
p4071
sg5
g6
(g10
S'4`\xeb\x15\x90\xa3_@'
p4072
tp4073
Rp4074
sg16
g17
ssI684
(dp4075
g3
S'EURJPY'
p4076
sg5
g6
(g10
S'p\xe5a\xf8\xc7\xc3_@'
p4077
tp4078
Rp4079
sg16
g17
ssI689
(dp4080
g3
S'EURJPY'
p4081
sg5
g6
(g10
S'^\xd1\x06\x97\xd1G_@'
p4082
tp4083
Rp4084
sg16
g33
ssI690
(dp4085
g3
S'EURJPY'
p4086
sg5
g6
(g10
S'(\x18\xf3\xc1\x86j_@'
p4087
tp4088
Rp4089
sg16
g33
ssI693
(dp4090
g3
S'EURJPY'
p4091
sg5
g6
(g10
S')^\x82\xd3\x9eJ_@'
p4092
tp4093
Rp4094
sg16
g17
ssI694
(dp4095
g3
S'EURJPY'
p4096
sg5
g6
(g10
S'\xc9I\xa9[\x8c\x81_@'
p4097
tp4098
Rp4099
sg16
g17
ssI695
(dp4100
g3
S'EURJPY'
p4101
sg5
g6
(g10
S't\xc1\x96c7t_@'
p4102
tp4103
Rp4104
sg16
g33
ssI697
(dp4105
g3
S'EURJPY'
p4106
sg5
g6
(g10
S'F\x05x\x11\x9a=_@'
p4107
tp4108
Rp4109
sg16
g33
ssI698
(dp4110
g3
S'EURJPY'
p4111
sg5
g6
(g10
S'd\xf9B\xe5:b_@'
p4112
tp4113
Rp4114
sg16
g33
ssI700
(dp4115
g3
S'EURJPY'
p4116
sg5
g6
(g10
S' \xff\xda\x0c-G_@'
p4117
tp4118
Rp4119
sg16
g33
ssI701
(dp4120
g3
S'EURJPY'
p4121
sg5
g6
(g10
S'.fk\xc3\xd5I_@'
p4122
tp4123
Rp4124
sg16
g33
ssI702
(dp4125
g3
S'EURJPY'
p4126
sg5
g6
(g10
S'\xb1e\xbb\x13\x0ea_@'
p4127
tp4128
Rp4129
sg16
g33
ssI703
(dp4130
g3
S'EURJPY'
p4131
sg5
g6
(g10
S'\xe1\nL3\xe1M_@'
p4132
tp4133
Rp4134
sg16
g33
ssI705
(dp4135
g3
S'EURJPY'
p4136
sg5
g6
(g10
S'\xcf#\xf7\xbc\xfec_@'
p4137
tp4138
Rp4139
sg16
g17
ssI709
(dp4140
g3
S'EURJPY'
p4141
sg5
g6
(g10
S'\x04\xa3\\|\xc9\xd8_@'
p4142
tp4143
Rp4144
sg16
g17
ssI710
(dp4145
g3
S'EURJPY'
p4146
sg5
g6
(g10
S'h\x9c\x9c\xe0R\xeb_@'
p4147
tp4148
Rp4149
sg16
g33
ssI712
(dp4150
g3
S'EURJPY'
p4151
sg5
g6
(g10
S'T\xfc\xfdDw\xfc_@'
p4152
tp4153
Rp4154
sg16
g33
ssI713
(dp4155
g3
S'EURJPY'
p4156
sg5
g6
(g10
S'56^\xf1\xeb"`@'
p4157
tp4158
Rp4159
sg16
g33
ssI714
(dp4160
g3
S'EURJPY'
p4161
sg5
g6
(g10
S'\x076B\xdd\xfb `@'
p4162
tp4163
Rp4164
sg16
g33
ssI715
(dp4165
g3
S'EURJPY'
p4166
sg5
g6
(g10
S'\x01\x9a\x04L4(`@'
p4167
tp4168
Rp4169
sg16
g33
ssI716
(dp4170
g3
S'EURJPY'
p4171
sg5
g6
(g10
S'\x85\xd3\xe3 \xe3 `@'
p4172
tp4173
Rp4174
sg16
g33
ssI720
(dp4175
g3
S'EURJPY'
p4176
sg5
g6
(g10
S'\x91\x8e\xdd\x1e](`@'
p4177
tp4178
Rp4179
sg16
g33
ssI725
(dp4180
g3
S'EURJPY'
p4181
sg5
g6
(g10
S'\x08\x85e\\\xc2]`@'
p4182
tp4183
Rp4184
sg16
g33
ssI726
(dp4185
g3
S'EURJPY'
p4186
sg5
g6
(g10
S'0\x92rh\xa8l`@'
p4187
tp4188
Rp4189
sg16
g33
ssI730
(dp4190
g3
S'EURJPY'
p4191
sg5
g6
(g10
S'\x82uu\xaa\x9a``@'
p4192
tp4193
Rp4194
sg16
g17
ssI732
(dp4195
g3
S'EURJPY'
p4196
sg5
g6
(g10
S'F}8}gh`@'
p4197
tp4198
Rp4199
sg16
g17
ssI733
(dp4200
g3
S'EURJPY'
p4201
sg5
g6
(g10
S'\n\xd6\x9f\xf4\xdb\\`@'
p4202
tp4203
Rp4204
sg16
g17
ssI736
(dp4205
g3
S'EURJPY'
p4206
sg5
g6
(g10
S'\xae\xa3\xc9\xad\xfa\x13`@'
p4207
tp4208
Rp4209
sg16
g17
ssI737
(dp4210
g3
S'EURJPY'
p4211
sg5
g6
(g10
S'\x9e\x9c\x95\xcaK$`@'
p4212
tp4213
Rp4214
sg16
g33
ssI739
(dp4215
g3
S'EURJPY'
p4216
sg5
g6
(g10
S'\xb8\x7f?Rw\x1c`@'
p4217
tp4218
Rp4219
sg16
g17
ssI745
(dp4220
g3
S'EURJPY'
p4221
sg5
g6
(g10
S'\x02\x9d\x01\xd1\xdc0`@'
p4222
tp4223
Rp4224
sg16
g33
ssI746
(dp4225
g3
S'EURJPY'
p4226
sg5
g6
(g10
S'=\x13\xbbf\x86B`@'
p4227
tp4228
Rp4229
sg16
g33
ssI748
(dp4230
g3
S'EURJPY'
p4231
sg5
g6
(g10
S'\x8bmEE\xe6@`@'
p4232
tp4233
Rp4234
sg16
g17
ssI749
(dp4235
g3
S'EURJPY'
p4236
sg5
g6
(g10
S"\xc6\x18R'\xbd^`@"
p4237
tp4238
Rp4239
sg16
g17
ssI751
(dp4240
g3
S'EURJPY'
p4241
sg5
g6
(g10
S' n\xe8\xba\xe6{`@'
p4242
tp4243
Rp4244
sg16
g33
ssI753
(dp4245
g3
S'EURJPY'
p4246
sg5
g6
(g10
S'\x9c\x9c\xc0\x9b\x8ez`@'
p4247
tp4248
Rp4249
sg16
g17
ssI757
(dp4250
g3
S'EURJPY'
p4251
sg5
g6
(g10
S'\xe5\x0c\xba\r\xb3y`@'
p4252
tp4253
Rp4254
sg16
g33
ssI761
(dp4255
g3
S'EURJPY'
p4256
sg5
g6
(g10
S'\xf4\xa4\xa2\xc4\xbe\xb8`@'
p4257
tp4258
Rp4259
sg16
g17
ssI762
(dp4260
g3
S'EURJPY'
p4261
sg5
g6
(g10
S'w\xe7\x0e\xaa)\xca`@'
p4262
tp4263
Rp4264
sg16
g17
ssI764
(dp4265
g3
S'EURJPY'
p4266
sg5
g6
(g10
S'\x8e\xf7\x90\xb3z\xb1`@'
p4267
tp4268
Rp4269
sg16
g17
ssI765
(dp4270
g3
S'EURJPY'
p4271
sg5
g6
(g10
S'\r\xe2eZ\x8c\xdd`@'
p4272
tp4273
Rp4274
sg16
g33
ssI767
(dp4275
g3
S'EURJPY'
p4276
sg5
g6
(g10
S'\x10\xddO\xeam\xc3`@'
p4277
tp4278
Rp4279
sg16
g33
ssI768
(dp4280
g3
S'EURJPY'
p4281
sg5
g6
(g10
S'F\xa3H\x19v\x99`@'
p4282
tp4283
Rp4284
sg16
g33
ssI772
(dp4285
g3
S'EURJPY'
p4286
sg5
g6
(g10
S'\xee,\xac\x856q`@'
p4287
tp4288
Rp4289
sg16
g33
ssI773
(dp4290
g3
S'EURJPY'
p4291
sg5
g6
(g10
S'\xf7)\x8d}\xf0Z`@'
p4292
tp4293
Rp4294
sg16
g33
ssI774
(dp4295
g3
S'EURJPY'
p4296
sg5
g6
(g10
S'\xf9\xb8\xe3\xab|;`@'
p4297
tp4298
Rp4299
sg16
g17
ssI775
(dp4300
g3
S'EURJPY'
p4301
sg5
g6
(g10
S'\x87\x87(\xc0r9`@'
p4302
tp4303
Rp4304
sg16
g33
ssI778
(dp4305
g3
S'EURJPY'
p4306
sg5
g6
(g10
S'GGZ\xdeT&`@'
p4307
tp4308
Rp4309
sg16
g33
ssI780
(dp4310
g3
S'EURJPY'
p4311
sg5
g6
(g10
S'St\x1b \n=`@'
p4312
tp4313
Rp4314
sg16
g33
ssI781
(dp4315
g3
S'EURJPY'
p4316
sg5
g6
(g10
S'\x85\xee\xd8(#W`@'
p4317
tp4318
Rp4319
sg16
g33
ssI783
(dp4320
g3
S'EURJPY'
p4321
sg5
g6
(g10
S'\x16\xc3\xaa}\xd8G`@'
p4322
tp4323
Rp4324
sg16
g17
ssI787
(dp4325
g3
S'EURJPY'
p4326
sg5
g6
(g10
S'[O\x05r\x9b<`@'
p4327
tp4328
Rp4329
sg16
g17
ssI788
(dp4330
g3
S'EURJPY'
p4331
sg5
g6
(g10
S'\xe9\xb7\xc8\x0c>\x0e`@'
p4332
tp4333
Rp4334
sg16
g17
ssI789
(dp4335
g3
S'EURJPY'
p4336
sg5
g6
(g10
S'\xc6?\xb2\xe4\xbf\xfc_@'
p4337
tp4338
Rp4339
sg16
g17
ssI795
(dp4340
g3
S'EURJPY'
p4341
sg5
g6
(g10
S'8\xd1[SW\xb0_@'
p4342
tp4343
Rp4344
sg16
g33
ssI796
(dp4345
g3
S'EURJPY'
p4346
sg5
g6
(g10
S'\xc2\x848\xd3]\x96_@'
p4347
tp4348
Rp4349
sg16
g33
ssI799
(dp4350
g3
S'EURJPY'
p4351
sg5
g6
(g10
S'\xff\xe1\x99\xa5\x16~_@'
p4352
tp4353
Rp4354
sg16
g33
ssI802
(dp4355
g3
S'EURJPY'
p4356
sg5
g6
(g10
S"[\xafro\xb1'_@"
p4357
tp4358
Rp4359
sg16
g17
ssI803
(dp4360
g3
S'EURJPY'
p4361
sg5
g6
(g10
S'3\x8bw\x8cb\xf2^@'
p4362
tp4363
Rp4364
sg16
g33
ssI805
(dp4365
g3
S'EURJPY'
p4366
sg5
g6
(g10
S']v\xa8\xc5\x90\x1a_@'
p4367
tp4368
Rp4369
sg16
g17
ssI807
(dp4370
g3
S'EURJPY'
p4371
sg5
g6
(g10
S'\x85\xdc\xe0\xa2\xb4\xfc^@'
p4372
tp4373
Rp4374
sg16
g33
ssI815
(dp4375
g3
S'EURJPY'
p4376
sg5
g6
(g10
S'\x17l}\x98\x88e_@'
p4377
tp4378
Rp4379
sg16
g17
ssI820
(dp4380
g3
S'EURJPY'
p4381
sg5
g6
(g10
S',pX63I_@'
p4382
tp4383
Rp4384
sg16
g17
ssI821
(dp4385
g3
S'EURJPY'
p4386
sg5
g6
(g10
S'*\x1f\xcf\xed]\x83_@'
p4387
tp4388
Rp4389
sg16
g17
ssI825
(dp4390
g3
S'EURJPY'
p4391
sg5
g6
(g10
S'+\xb3h\xe3\x0f2_@'
p4392
tp4393
Rp4394
sg16
g17
ssI826
(dp4395
g3
S'EURJPY'
p4396
sg5
g6
(g10
S'\t\x1ah\xd5\x94\x14_@'
p4397
tp4398
Rp4399
sg16
g17
ssI827
(dp4400
g3
S'EURJPY'
p4401
sg5
g6
(g10
S"'|\xack\x0f\xee^@"
p4402
tp4403
Rp4404
sg16
g17
ssI828
(dp4405
g3
S'EURJPY'
p4406
sg5
g6
(g10
S'\xb7HD\x89\xbf\xed^@'
p4407
tp4408
Rp4409
sg16
g17
ssI833
(dp4410
g3
S'EURJPY'
p4411
sg5
g6
(g10
S'\xb8\x9e\x0fTo\xc3^@'
p4412
tp4413
Rp4414
sg16
g17
ssI835
(dp4415
g3
S'EURJPY'
p4416
sg5
g6
(g10
S'\x08=:\xe1x\x07_@'
p4417
tp4418
Rp4419
sg16
g17
ssI837
(dp4420
g3
S'EURJPY'
p4421
sg5
g6
(g10
S'\x02\xdd\x9c\xb7\xd9\xca^@'
p4422
tp4423
Rp4424
sg16
g33
ssI840
(dp4425
g3
S'EURJPY'
p4426
sg5
g6
(g10
S'm\xeev5J\xee^@'
p4427
tp4428
Rp4429
sg16
g33
ssI841
(dp4430
g3
S'EURJPY'
p4431
sg5
g6
(g10
S'\x8fc\xdc;6\xd5^@'
p4432
tp4433
Rp4434
sg16
g17
ssI842
(dp4435
g3
S'EURJPY'
p4436
sg5
g6
(g10
S'\xf6\xccW\x94\xb9\xf3^@'
p4437
tp4438
Rp4439
sg16
g33
ssI843
(dp4440
g3
S'EURJPY'
p4441
sg5
g6
(g10
S'\x1e\x8e\x0e \x14\xff^@'
p4442
tp4443
Rp4444
sg16
g33
ssI847
(dp4445
g3
S'EURJPY'
p4446
sg5
g6
(g10
S'\xa0\xd8r\xb9\x99\xdc^@'
p4447
tp4448
Rp4449
sg16
g33
ssI848
(dp4450
g3
S'EURJPY'
p4451
sg5
g6
(g10
S'\xa4ZL\x17\xe5\xa5^@'
p4452
tp4453
Rp4454
sg16
g17
ssI849
(dp4455
g3
S'EURJPY'
p4456
sg5
g6
(g10
S'\xe0\xcaI\x7f\x14\x89^@'
p4457
tp4458
Rp4459
sg16
g33
ssI850
(dp4460
g3
S'EURJPY'
p4461
sg5
g6
(g10
S'[@\xe0\xb0\x81\xe9^@'
p4462
tp4463
Rp4464
sg16
g33
ssI854
(dp4465
g3
S'EURJPY'
p4466
sg5
g6
(g10
S'\xe2\x13\xde\xb8\xf6<_@'
p4467
tp4468
Rp4469
sg16
g17
ssI856
(dp4470
g3
S'EURJPY'
p4471
sg5
g6
(g10
S'\xb2\xa2=*\xea)_@'
p4472
tp4473
Rp4474
sg16
g17
ssI860
(dp4475
g3
S'EURJPY'
p4476
sg5
g6
(g10
S'0U\xd4\x9a\xa4\xcb^@'
p4477
tp4478
Rp4479
sg16
g17
ssI862
(dp4480
g3
S'EURJPY'
p4481
sg5
g6
(g10
S'\xf0\xa9\xfb\xec[\x93^@'
p4482
tp4483
Rp4484
sg16
g33
ssI863
(dp4485
g3
S'EURJPY'
p4486
sg5
g6
(g10
S'\xc5"T\x01\x868^@'
p4487
tp4488
Rp4489
sg16
g33
ssI864
(dp4490
g3
S'EURJPY'
p4491
sg5
g6
(g10
S'kO\xc0\x8c\xc6 ^@'
p4492
tp4493
Rp4494
sg16
g17
ssI866
(dp4495
g3
S'EURJPY'
p4496
sg5
g6
(g10
S'D9\xc1Q\xcb`^@'
p4497
tp4498
Rp4499
sg16
g17
ssI867
(dp4500
g3
S'EURJPY'
p4501
sg5
g6
(g10
S'b\x1fqn(<^@'
p4502
tp4503
Rp4504
sg16
g17
ssI868
(dp4505
g3
S'EURJPY'
p4506
sg5
g6
(g10
S'\xf2\x06\x07\xd1\xce\x7f^@'
p4507
tp4508
Rp4509
sg16
g33
ssI869
(dp4510
g3
S'EURJPY'
p4511
sg5
g6
(g10
S't-\nG\xdeB^@'
p4512
tp4513
Rp4514
sg16
g17
ssa(dp4515
I1
(dp4516
g3
S'EURCHF'
p4517
sg5
g6
(g10
S'w\xe9=\xcc\xb2@\xf1?'
p4518
tp4519
Rp4520
sg16
g33
ssI3
(dp4521
g3
S'EURCHF'
p4522
sg5
g6
(g10
S'qQ\xb7\xafGt\xf1?'
p4523
tp4524
Rp4525
sg16
g33
ssI8
(dp4526
g3
S'EURCHF'
p4527
sg5
g6
(g10
S'\x1cdA:\xb6P\xf1?'
p4528
tp4529
Rp4530
sg16
g33
ssI9
(dp4531
g3
S'EURCHF'
p4532
sg5
g6
(g10
S'\x0bH\xa7\xcd\x87R\xf1?'
p4533
tp4534
Rp4535
sg16
g17
ssI10
(dp4536
g3
S'EURCHF'
p4537
sg5
g6
(g10
S'\xf4 \xaci\x9bl\xf1?'
p4538
tp4539
Rp4540
sg16
g17
ssI12
(dp4541
g3
S'EURCHF'
p4542
sg5
g6
(g10
S'\xb0 \xad7\xe6y\xf1?'
p4543
tp4544
Rp4545
sg16
g17
ssI13
(dp4546
g3
S'EURCHF'
p4547
sg5
g6
(g10
S'2\xfc\x04-\x80e\xf1?'
p4548
tp4549
Rp4550
sg16
g33
ssI16
(dp4551
g3
S'EURCHF'
p4552
sg5
g6
(g10
S'0\xff\xa9\xb8{X\xf1?'
p4553
tp4554
Rp4555
sg16
g17
ssI23
(dp4556
g3
S'EURCHF'
p4557
sg5
g6
(g10
S'\x82\xd5r\xd4\xd9o\xf1?'
p4558
tp4559
Rp4560
sg16
g17
ssI24
(dp4561
g3
S'EURCHF'
p4562
sg5
g6
(g10
S'\xdd5\xe0#Hg\xf1?'
p4563
tp4564
Rp4565
sg16
g33
ssI27
(dp4566
g3
S'EURCHF'
p4567
sg5
g6
(g10
S'\x95~\x1ffhg\xf1?'
p4568
tp4569
Rp4570
sg16
g17
ssI28
(dp4571
g3
S'EURCHF'
p4572
sg5
g6
(g10
S'Z\xf3\x1b*]{\xf1?'
p4573
tp4574
Rp4575
sg16
g17
ssI31
(dp4576
g3
S'EURCHF'
p4577
sg5
g6
(g10
S'\x92\\\xf4\xd0\x89\xc6\xf1?'
p4578
tp4579
Rp4580
sg16
g33
ssI34
(dp4581
g3
S'EURCHF'
p4582
sg5
g6
(g10
S'N\x89\x80;3\x02\xf2?'
p4583
tp4584
Rp4585
sg16
g17
ssI35
(dp4586
g3
S'EURCHF'
p4587
sg5
g6
(g10
S'%\x7f\xc8K\x01\t\xf2?'
p4588
tp4589
Rp4590
sg16
g17
ssI36
(dp4591
g3
S'EURCHF'
p4592
sg5
g6
(g10
S'\r\x87>\x03 \x14\xf2?'
p4593
tp4594
Rp4595
sg16
g33
ssI37
(dp4596
g3
S'EURCHF'
p4597
sg5
g6
(g10
S'\xa1\r\x1e\\ZJ\xf2?'
p4598
tp4599
Rp4600
sg16
g33
ssI38
(dp4601
g3
S'EURCHF'
p4602
sg5
g6
(g10
S'\xa3\x99\xc37RO\xf2?'
p4603
tp4604
Rp4605
sg16
g33
ssI39
(dp4606
g3
S'EURCHF'
p4607
sg5
g6
(g10
S'\xae\xa7\x8b\x08GX\xf2?'
p4608
tp4609
Rp4610
sg16
g17
ssI40
(dp4611
g3
S'EURCHF'
p4612
sg5
g6
(g10
S'\xaaNhQMY\xf2?'
p4613
tp4614
Rp4615
sg16
g17
ssI41
(dp4616
g3
S'EURCHF'
p4617
sg5
g6
(g10
S'z\x9c\xb4\x0b4F\xf2?'
p4618
tp4619
Rp4620
sg16
g17
ssI43
(dp4621
g3
S'EURCHF'
p4622
sg5
g6
(g10
S'\x0c\xbc\x1f|$\x1a\xf2?'
p4623
tp4624
Rp4625
sg16
g33
ssI44
(dp4626
g3
S'EURCHF'
p4627
sg5
g6
(g10
S'\xb7]\x00\xbf!\x0c\xf2?'
p4628
tp4629
Rp4630
sg16
g17
ssI45
(dp4631
g3
S'EURCHF'
p4632
sg5
g6
(g10
S'$\x16\xb2\x17\x88,\xf2?'
p4633
tp4634
Rp4635
sg16
g17
ssI48
(dp4636
g3
S'EURCHF'
p4637
sg5
g6
(g10
S'\x80\x83V\x1c\xfb\xd8\xf1?'
p4638
tp4639
Rp4640
sg16
g33
ssI50
(dp4641
g3
S'EURCHF'
p4642
sg5
g6
(g10
S'\x9f/\xe3\xb4\xaa\xc7\xf1?'
p4643
tp4644
Rp4645
sg16
g17
ssI54
(dp4646
g3
S'EURCHF'
p4647
sg5
g6
(g10
S'\x16N\xde\x1bN\xd3\xf1?'
p4648
tp4649
Rp4650
sg16
g33
ssI55
(dp4651
g3
S'EURCHF'
p4652
sg5
g6
(g10
S'\xeb\xba\x0f\x08\x90\xc3\xf1?'
p4653
tp4654
Rp4655
sg16
g33
ssI56
(dp4656
g3
S'EURCHF'
p4657
sg5
g6
(g10
S'\x0fm\xec\xc76\xc7\xf1?'
p4658
tp4659
Rp4660
sg16
g33
ssI57
(dp4661
g3
S'EURCHF'
p4662
sg5
g6
(g10
S'&w\xe7,\x8d\xeb\xf1?'
p4663
tp4664
Rp4665
sg16
g33
ssI58
(dp4666
g3
S'EURCHF'
p4667
sg5
g6
(g10
S'\x0c]\xfa5F\xed\xf1?'
p4668
tp4669
Rp4670
sg16
g33
ssI62
(dp4671
g3
S'EURCHF'
p4672
sg5
g6
(g10
S'\xefn\xe2Q\xaf\xf8\xf1?'
p4673
tp4674
Rp4675
sg16
g33
ssI64
(dp4676
g3
S'EURCHF'
p4677
sg5
g6
(g10
S'\x98\xf4\x03\xdd\xdb\x04\xf2?'
p4678
tp4679
Rp4680
sg16
g17
ssI65
(dp4681
g3
S'EURCHF'
p4682
sg5
g6
(g10
S'\x07K{\x1a#\xff\xf1?'
p4683
tp4684
Rp4685
sg16
g33
ssI68
(dp4686
g3
S'EURCHF'
p4687
sg5
g6
(g10
S'er\x82\xf4\xa9\x0e\xf2?'
p4688
tp4689
Rp4690
sg16
g17
ssI69
(dp4691
g3
S'EURCHF'
p4692
sg5
g6
(g10
S'\x10T\xc9\x8e\x90\xfe\xf1?'
p4693
tp4694
Rp4695
sg16
g17
ssI71
(dp4696
g3
S'EURCHF'
p4697
sg5
g6
(g10
S'u@bn^\x10\xf2?'
p4698
tp4699
Rp4700
sg16
g33
ssI72
(dp4701
g3
S'EURCHF'
p4702
sg5
g6
(g10
S'.N\x9a"\xf1\xfb\xf1?'
p4703
tp4704
Rp4705
sg16
g17
ssI73
(dp4706
g3
S'EURCHF'
p4707
sg5
g6
(g10
S'x\x02j\xda\r\xde\xf1?'
p4708
tp4709
Rp4710
sg16
g33
ssI74
(dp4711
g3
S'EURCHF'
p4712
sg5
g6
(g10
S'#\xd3<\xa1-\xe1\xf1?'
p4713
tp4714
Rp4715
sg16
g17
ssI78
(dp4716
g3
S'EURCHF'
p4717
sg5
g6
(g10
S'\xa1gO\xbe\x82\x9b\xf1?'
p4718
tp4719
Rp4720
sg16
g33
ssI80
(dp4721
g3
S'EURCHF'
p4722
sg5
g6
(g10
S'\xb5\xf1\xe7?\xc7\xb0\xf1?'
p4723
tp4724
Rp4725
sg16
g17
ssI81
(dp4726
g3
S'EURCHF'
p4727
sg5
g6
(g10
S'-G7LW\xab\xf1?'
p4728
tp4729
Rp4730
sg16
g33
ssI83
(dp4731
g3
S'EURCHF'
p4732
sg5
g6
(g10
S'UD\x15\xc6\t\xac\xf1?'
p4733
tp4734
Rp4735
sg16
g17
ssI84
(dp4736
g3
S'EURCHF'
p4737
sg5
g6
(g10
S'ww\x80\xc9\x85\xb5\xf1?'
p4738
tp4739
Rp4740
sg16
g33
ssI85
(dp4741
g3
S'EURCHF'
p4742
sg5
g6
(g10
S":\xbc<'a\xc5\xf1?"
p4743
tp4744
Rp4745
sg16
g17
ssI86
(dp4746
g3
S'EURCHF'
p4747
sg5
g6
(g10
S'+\x17e\x9b{\xbb\xf1?'
p4748
tp4749
Rp4750
sg16
g33
ssI88
(dp4751
g3
S'EURCHF'
p4752
sg5
g6
(g10
S'\xc84\xc5\x11\xce\x98\xf1?'
p4753
tp4754
Rp4755
sg16
g17
ssI89
(dp4756
g3
S'EURCHF'
p4757
sg5
g6
(g10
S'\xbd\xd4\xa3hb\xb6\xf1?'
p4758
tp4759
Rp4760
sg16
g33
ssI90
(dp4761
g3
S'EURCHF'
p4762
sg5
g6
(g10
S'\x0eQ\xe8lZ\xa7\xf1?'
p4763
tp4764
Rp4765
sg16
g17
ssI94
(dp4766
g3
S'EURCHF'
p4767
sg5
g6
(g10
S'\x1e]\x16\xea\xa8\t\xf2?'
p4768
tp4769
Rp4770
sg16
g17
ssI95
(dp4771
g3
S'EURCHF'
p4772
sg5
g6
(g10
S"\xda'W4\xa2\xf8\xf1?"
p4773
tp4774
Rp4775
sg16
g33
ssI97
(dp4776
g3
S'EURCHF'
p4777
sg5
g6
(g10
S'\x15\xcai\x0e\xd6\xe6\xf1?'
p4778
tp4779
Rp4780
sg16
g33
ssI99
(dp4781
g3
S'EURCHF'
p4782
sg5
g6
(g10
S'U1\x1f\xb7`\x00\xf2?'
p4783
tp4784
Rp4785
sg16
g33
ssI102
(dp4786
g3
S'EURCHF'
p4787
sg5
g6
(g10
S'\x12z\x0b\xe3\xde\xbe\xf1?'
p4788
tp4789
Rp4790
sg16
g17
ssI107
(dp4791
g3
S'EURCHF'
p4792
sg5
g6
(g10
S'\xfb\xbe\xa4\xeb\x8a\x98\xf1?'
p4793
tp4794
Rp4795
sg16
g17
ssI109
(dp4796
g3
S'EURCHF'
p4797
sg5
g6
(g10
S'\xc6G<\x9c\x91\x9f\xf1?'
p4798
tp4799
Rp4800
sg16
g17
ssI111
(dp4801
g3
S'EURCHF'
p4802
sg5
g6
(g10
S"G'u\xb0\xd0\x9e\xf1?"
p4803
tp4804
Rp4805
sg16
g33
ssI112
(dp4806
g3
S'EURCHF'
p4807
sg5
g6
(g10
S'\xa3O\xaf\xc2\x1e\x96\xf1?'
p4808
tp4809
Rp4810
sg16
g17
ssI116
(dp4811
g3
S'EURCHF'
p4812
sg5
g6
(g10
S'\xfe4s\x13\x9cU\xf1?'
p4813
tp4814
Rp4815
sg16
g33
ssI118
(dp4816
g3
S'EURCHF'
p4817
sg5
g6
(g10
S'\x96\xf9-\xe4.9\xf1?'
p4818
tp4819
Rp4820
sg16
g17
ssI121
(dp4821
g3
S'EURCHF'
p4822
sg5
g6
(g10
S'Q9\xcc\xc4\xb3X\xf1?'
p4823
tp4824
Rp4825
sg16
g33
ssI122
(dp4826
g3
S'EURCHF'
p4827
sg5
g6
(g10
S'\xad \x0eurc\xf1?'
p4828
tp4829
Rp4830
sg16
g17
ssI133
(dp4831
g3
S'EURCHF'
p4832
sg5
g6
(g10
S'J\xb9K\x85u`\xf1?'
p4833
tp4834
Rp4835
sg16
g17
ssI136
(dp4836
g3
S'EURCHF'
p4837
sg5
g6
(g10
S'\x0c\x14\xf5\xde\x9cn\xf1?'
p4838
tp4839
Rp4840
sg16
g17
ssI137
(dp4841
g3
S'EURCHF'
p4842
sg5
g6
(g10
S'\x9f2kwR\x85\xf1?'
p4843
tp4844
Rp4845
sg16
g33
ssI140
(dp4846
g3
S'EURCHF'
p4847
sg5
g6
(g10
S'8\xdcc4"\x83\xf1?'
p4848
tp4849
Rp4850
sg16
g33
ssI143
(dp4851
g3
S'EURCHF'
p4852
sg5
g6
(g10
S'W\xea\xa7"d\x85\xf1?'
p4853
tp4854
Rp4855
sg16
g17
ssI144
(dp4856
g3
S'EURCHF'
p4857
sg5
g6
(g10
S'\x84\xd6\xcc7\x9b\x9a\xf1?'
p4858
tp4859
Rp4860
sg16
g33
ssI145
(dp4861
g3
S'EURCHF'
p4862
sg5
g6
(g10
S'\x1eS\x9bd\xb2\x97\xf1?'
p4863
tp4864
Rp4865
sg16
g17
ssI146
(dp4866
g3
S'EURCHF'
p4867
sg5
g6
(g10
S'\x8c\xc5fQ\xdb\x85\xf1?'
p4868
tp4869
Rp4870
sg16
g17
ssI148
(dp4871
g3
S'EURCHF'
p4872
sg5
g6
(g10
S'\x8f{\x82\xad\x9aa\xf1?'
p4873
tp4874
Rp4875
sg16
g33
ssI149
(dp4876
g3
S'EURCHF'
p4877
sg5
g6
(g10
S'\xf9\xbe\xfc \xb0R\xf1?'
p4878
tp4879
Rp4880
sg16
g33
ssI150
(dp4881
g3
S'EURCHF'
p4882
sg5
g6
(g10
S'\xd2\xd6r\xd1\x02f\xf1?'
p4883
tp4884
Rp4885
sg16
g33
ssI152
(dp4886
g3
S'EURCHF'
p4887
sg5
g6
(g10
S'\xb0\xd0\xd3\xb0\xb9F\xf1?'
p4888
tp4889
Rp4890
sg16
g33
ssI154
(dp4891
g3
S'EURCHF'
p4892
sg5
g6
(g10
S'\xd9\xe0\xd4\x7f\xc00\xf1?'
p4893
tp4894
Rp4895
sg16
g17
ssI157
(dp4896
g3
S'EURCHF'
p4897
sg5
g6
(g10
S'\xfd\x8dAx\xd4Q\xf1?'
p4898
tp4899
Rp4900
sg16
g17
ssI159
(dp4901
g3
S'EURCHF'
p4902
sg5
g6
(g10
S'S!\xcb\x1beY\xf1?'
p4903
tp4904
Rp4905
sg16
g33
ssI160
(dp4906
g3
S'EURCHF'
p4907
sg5
g6
(g10
S'J\x96\xf2!\xce=\xf1?'
p4908
tp4909
Rp4910
sg16
g33
ssI164
(dp4911
g3
S'EURCHF'
p4912
sg5
g6
(g10
S'\xb0\xbeI?o%\xf1?'
p4913
tp4914
Rp4915
sg16
g33
ssI165
(dp4916
g3
S'EURCHF'
p4917
sg5
g6
(g10
S'\xc8\x15\xbe\x82\x9b6\xf1?'
p4918
tp4919
Rp4920
sg16
g33
ssI166
(dp4921
g3
S'EURCHF'
p4922
sg5
g6
(g10
S'\x9bb\xb9\x1b\xfdX\xf1?'
p4923
tp4924
Rp4925
sg16
g17
ssI167
(dp4926
g3
S'EURCHF'
p4927
sg5
g6
(g10
S'}\xf5\x01!\xb6i\xf1?'
p4928
tp4929
Rp4930
sg16
g17
ssI168
(dp4931
g3
S'EURCHF'
p4932
sg5
g6
(g10
S'\x93S\xaf?j\x86\xf1?'
p4933
tp4934
Rp4935
sg16
g17
ssI169
(dp4936
g3
S'EURCHF'
p4937
sg5
g6
(g10
S']N=f\xaa\x87\xf1?'
p4938
tp4939
Rp4940
sg16
g33
ssI171
(dp4941
g3
S'EURCHF'
p4942
sg5
g6
(g10
S'\x10\xfc\xadS\xba\x9f\xf1?'
p4943
tp4944
Rp4945
sg16
g17
ssI172
(dp4946
g3
S'EURCHF'
p4947
sg5
g6
(g10
S'&\t\xc5P9\xb0\xf1?'
p4948
tp4949
Rp4950
sg16
g17
ssI174
(dp4951
g3
S'EURCHF'
p4952
sg5
g6
(g10
S'\xb2\xc861\x1d\xcc\xf1?'
p4953
tp4954
Rp4955
sg16
g17
ssI175
(dp4956
g3
S'EURCHF'
p4957
sg5
g6
(g10
S'\xd6\xee\xa7*\x1c\xd4\xf1?'
p4958
tp4959
Rp4960
sg16
g33
ssI178
(dp4961
g3
S'EURCHF'
p4962
sg5
g6
(g10
S'\x8e}\xbf\rU\xc4\xf1?'
p4963
tp4964
Rp4965
sg16
g17
ssI180
(dp4966
g3
S'EURCHF'
p4967
sg5
g6
(g10
S'\xc51\xe5pR\xcd\xf1?'
p4968
tp4969
Rp4970
sg16
g17
ssI182
(dp4971
g3
S'EURCHF'
p4972
sg5
g6
(g10
S'\x13V\xe9\xd3b\xeb\xf1?'
p4973
tp4974
Rp4975
sg16
g33
ssI183
(dp4976
g3
S'EURCHF'
p4977
sg5
g6
(g10
S'\x03Y\xf3\xf4\x94\xcf\xf1?'
p4978
tp4979
Rp4980
sg16
g17
ssI185
(dp4981
g3
S'EURCHF'
p4982
sg5
g6
(g10
S'\xd1\xf0\xc5\xef\x89\xc8\xf1?'
p4983
tp4984
Rp4985
sg16
g17
ssI186
(dp4986
g3
S'EURCHF'
p4987
sg5
g6
(g10
S'z\x80\xe8\xa8}\xf2\xf1?'
p4988
tp4989
Rp4990
sg16
g17
ssI187
(dp4991
g3
S'EURCHF'
p4992
sg5
g6
(g10
S"NoH5'\n\xf2?"
p4993
tp4994
Rp4995
sg16
g17
ssI188
(dp4996
g3
S'EURCHF'
p4997
sg5
g6
(g10
S'\x1a\xa2\x90,q\x08\xf2?'
p4998
tp4999
Rp5000
sg16
g33
ssI194
(dp5001
g3
S'EURCHF'
p5002
sg5
g6
(g10
S'\xca\xcf\xe2a> \xf2?'
p5003
tp5004
Rp5005
sg16
g33
ssI195
(dp5006
g3
S'EURCHF'
p5007
sg5
g6
(g10
S'\xf5p:i\x1b#\xf2?'
p5008
tp5009
Rp5010
sg16
g33
ssI196
(dp5011
g3
S'EURCHF'
p5012
sg5
g6
(g10
S'\x86\x9a\xe7o\xdf+\xf2?'
p5013
tp5014
Rp5015
sg16
g33
ssI197
(dp5016
g3
S'EURCHF'
p5017
sg5
g6
(g10
S'Z\x8f\xd2\xeb\x81\x16\xf2?'
p5018
tp5019
Rp5020
sg16
g17
ssI199
(dp5021
g3
S'EURCHF'
p5022
sg5
g6
(g10
S'\x00\x12k\x83\xa8\x00\xf2?'
p5023
tp5024
Rp5025
sg16
g33
ssI200
(dp5026
g3
S'EURCHF'
p5027
sg5
g6
(g10
S'E\xc2\x97\xd4`\n\xf2?'
p5028
tp5029
Rp5030
sg16
g17
ssI202
(dp5031
g3
S'EURCHF'
p5032
sg5
g6
(g10
S'\x89{%\x922\x08\xf2?'
p5033
tp5034
Rp5035
sg16
g33
ssI203
(dp5036
g3
S'EURCHF'
p5037
sg5
g6
(g10
S'\xa7Me:\x08\x0e\xf2?'
p5038
tp5039
Rp5040
sg16
g33
ssI204
(dp5041
g3
S'EURCHF'
p5042
sg5
g6
(g10
S'#s*\xe8\xb0\x08\xf2?'
p5043
tp5044
Rp5045
sg16
g17
ssI207
(dp5046
g3
S'EURCHF'
p5047
sg5
g6
(g10
S'\xb7\xe6\xc5\xe3\x1eB\xf2?'
p5048
tp5049
Rp5050
sg16
g33
ssI209
(dp5051
g3
S'EURCHF'
p5052
sg5
g6
(g10
S'v\xc7\xd7\x9f51\xf2?'
p5053
tp5054
Rp5055
sg16
g17
ssI210
(dp5056
g3
S'EURCHF'
p5057
sg5
g6
(g10
S'H\x99\x1e\x8fF"\xf2?'
p5058
tp5059
Rp5060
sg16
g33
ssI212
(dp5061
g3
S'EURCHF'
p5062
sg5
g6
(g10
S'\x16#\x1d\xdb\xb73\xf2?'
p5063
tp5064
Rp5065
sg16
g17
ssI213
(dp5066
g3
S'EURCHF'
p5067
sg5
g6
(g10
S'\x9c\xcc3O\xfb\x03\xf2?'
p5068
tp5069
Rp5070
sg16
g17
ssI216
(dp5071
g3
S'EURCHF'
p5072
sg5
g6
(g10
S'?Y\x8b;\x95\x08\xf2?'
p5073
tp5074
Rp5075
sg16
g17
ssI218
(dp5076
g3
S'EURCHF'
p5077
sg5
g6
(g10
S'\xcfC\x8c^M\x1b\xf2?'
p5078
tp5079
Rp5080
sg16
g17
ssI221
(dp5081
g3
S'EURCHF'
p5082
sg5
g6
(g10
S'"\xf0\xb3yp\xfb\xf1?'
p5083
tp5084
Rp5085
sg16
g33
ssI223
(dp5086
g3
S'EURCHF'
p5087
sg5
g6
(g10
S'\xe9`8]\xfa\xf0\xf1?'
p5088
tp5089
Rp5090
sg16
g17
ssI224
(dp5091
g3
S'EURCHF'
p5092
sg5
g6
(g10
S'\xbb\xfa{#\x1c\xdd\xf1?'
p5093
tp5094
Rp5095
sg16
g33
ssI226
(dp5096
g3
S'EURCHF'
p5097
sg5
g6
(g10
S'\x1c\xfbh\xe3\xb8\xae\xf1?'
p5098
tp5099
Rp5100
sg16
g17
ssI227
(dp5101
g3
S'EURCHF'
p5102
sg5
g6
(g10
S'\x08\xf5\xec\xa1]\xf5\xf1?'
p5103
tp5104
Rp5105
sg16
g33
ssI228
(dp5106
g3
S'EURCHF'
p5107
sg5
g6
(g10
S'"\xb9\xd7T\xd7\x03\xf2?'
p5108
tp5109
Rp5110
sg16
g33
ssI229
(dp5111
g3
S'EURCHF'
p5112
sg5
g6
(g10
S'j\xb1\t/,1\xf2?'
p5113
tp5114
Rp5115
sg16
g33
ssI234
(dp5116
g3
S'EURCHF'
p5117
sg5
g6
(g10
S'#\x98h\xbd\xd9\x98\xf2?'
p5118
tp5119
Rp5120
sg16
g17
ssI235
(dp5121
g3
S'EURCHF'
p5122
sg5
g6
(g10
S'\xbcb\x89\x9c!p\xf2?'
p5123
tp5124
Rp5125
sg16
g33
ssI238
(dp5126
g3
S'EURCHF'
p5127
sg5
g6
(g10
S'\xaf\xd3\xfa\xb3Kp\xf2?'
p5128
tp5129
Rp5130
sg16
g33
ssI239
(dp5131
g3
S'EURCHF'
p5132
sg5
g6
(g10
S'\xb6.\x83\xc6\x05_\xf2?'
p5133
tp5134
Rp5135
sg16
g17
ssI241
(dp5136
g3
S'EURCHF'
p5137
sg5
g6
(g10
S'g|\xadd\x85U\xf2?'
p5138
tp5139
Rp5140
sg16
g33
ssI242
(dp5141
g3
S'EURCHF'
p5142
sg5
g6
(g10
S'h\xb8\xe3\x9e,`\xf2?'
p5143
tp5144
Rp5145
sg16
g33
ssI247
(dp5146
g3
S'EURCHF'
p5147
sg5
g6
(g10
S'\xf7\xfc\xc0\x85$}\xf2?'
p5148
tp5149
Rp5150
sg16
g17
ssI250
(dp5151
g3
S'EURCHF'
p5152
sg5
g6
(g10
S'\xbdy\xed\xf1\xd7h\xf2?'
p5153
tp5154
Rp5155
sg16
g33
ssI253
(dp5156
g3
S'EURCHF'
p5157
sg5
g6
(g10
S'8\\\xf7\xc3\\\xa5\xf2?'
p5158
tp5159
Rp5160
sg16
g33
ssI255
(dp5161
g3
S'EURCHF'
p5162
sg5
g6
(g10
S'l\xf9\xe2\x02\x0c\x9c\xf2?'
p5163
tp5164
Rp5165
sg16
g17
ssI256
(dp5166
g3
S'EURCHF'
p5167
sg5
g6
(g10
S'-.\x91\xb9\x19\x92\xf2?'
p5168
tp5169
Rp5170
sg16
g17
ssI258
(dp5171
g3
S'EURCHF'
p5172
sg5
g6
(g10
S'\x0c\xb3\xff\xb9\x05\x86\xf2?'
p5173
tp5174
Rp5175
sg16
g33
ssI264
(dp5176
g3
S'EURCHF'
p5177
sg5
g6
(g10
S'\xb2\xb7\xd9\xe8\x8ei\xf2?'
p5178
tp5179
Rp5180
sg16
g33
ssI266
(dp5181
g3
S'EURCHF'
p5182
sg5
g6
(g10
S'HV\xe4\xbe\xf5O\xf2?'
p5183
tp5184
Rp5185
sg16
g33
ssI267
(dp5186
g3
S'EURCHF'
p5187
sg5
g6
(g10
S'{\x952Wj<\xf2?'
p5188
tp5189
Rp5190
sg16
g33
ssI270
(dp5191
g3
S'EURCHF'
p5192
sg5
g6
(g10
S'\xe0\xdf\x1d\xe3,Z\xf2?'
p5193
tp5194
Rp5195
sg16
g33
ssI279
(dp5196
g3
S'EURCHF'
p5197
sg5
g6
(g10
S'\xdf\xa9\x98\xfeIP\xf2?'
p5198
tp5199
Rp5200
sg16
g33
ssI280
(dp5201
g3
S'EURCHF'
p5202
sg5
g6
(g10
S'\x13#|u\x9b\\\xf2?'
p5203
tp5204
Rp5205
sg16
g33
ssI283
(dp5206
g3
S'EURCHF'
p5207
sg5
g6
(g10
S'\xf0cR<\x11e\xf2?'
p5208
tp5209
Rp5210
sg16
g17
ssI284
(dp5211
g3
S'EURCHF'
p5212
sg5
g6
(g10
S'\xa5Z%mBb\xf2?'
p5213
tp5214
Rp5215
sg16
g17
ssI286
(dp5216
g3
S'EURCHF'
p5217
sg5
g6
(g10
S'\xdb)D\xc6\xabD\xf2?'
p5218
tp5219
Rp5220
sg16
g33
ssI287
(dp5221
g3
S'EURCHF'
p5222
sg5
g6
(g10
S'\x08\xb9\xe8\x7ffK\xf2?'
p5223
tp5224
Rp5225
sg16
g17
ssI288
(dp5226
g3
S'EURCHF'
p5227
sg5
g6
(g10
S'\x96R)\xbdm=\xf2?'
p5228
tp5229
Rp5230
sg16
g17
ssI292
(dp5231
g3
S'EURCHF'
p5232
sg5
g6
(g10
S'\xc0\xcb\xf7\xee.B\xf2?'
p5233
tp5234
Rp5235
sg16
g17
ssI293
(dp5236
g3
S'EURCHF'
p5237
sg5
g6
(g10
S'\x1a\xd3\xf2\xd7JY\xf2?'
p5238
tp5239
Rp5240
sg16
g17
ssI295
(dp5241
g3
S'EURCHF'
p5242
sg5
g6
(g10
S'AZ\xa0\xcc$Q\xf2?'
p5243
tp5244
Rp5245
sg16
g17
ssI296
(dp5246
g3
S'EURCHF'
p5247
sg5
g6
(g10
S'\xd1\x85\xeb<I<\xf2?'
p5248
tp5249
Rp5250
sg16
g17
ssI304
(dp5251
g3
S'EURCHF'
p5252
sg5
g6
(g10
S'G\x1b\xab\x82\xb4\x81\xf2?'
p5253
tp5254
Rp5255
sg16
g17
ssI305
(dp5256
g3
S'EURCHF'
p5257
sg5
g6
(g10
S'\x96T\x0e\xac\x0c\x84\xf2?'
p5258
tp5259
Rp5260
sg16
g17
ssI306
(dp5261
g3
S'EURCHF'
p5262
sg5
g6
(g10
S'\xa3f4qZ\x85\xf2?'
p5263
tp5264
Rp5265
sg16
g33
ssI310
(dp5266
g3
S'EURCHF'
p5267
sg5
g6
(g10
S'\xf4O\xabf\xf4K\xf2?'
p5268
tp5269
Rp5270
sg16
g17
ssI311
(dp5271
g3
S'EURCHF'
p5272
sg5
g6
(g10
S'\xdf\xd4\xd8\xa6-9\xf2?'
p5273
tp5274
Rp5275
sg16
g33
ssI315
(dp5276
g3
S'EURCHF'
p5277
sg5
g6
(g10
S'.\x9a\xd91\x11a\xf2?'
p5278
tp5279
Rp5280
sg16
g17
ssI318
(dp5281
g3
S'EURCHF'
p5282
sg5
g6
(g10
S'\x15\xae\x9f"Ep\xf2?'
p5283
tp5284
Rp5285
sg16
g17
ssI322
(dp5286
g3
S'EURCHF'
p5287
sg5
g6
(g10
S'\x85\xd7sKei\xf2?'
p5288
tp5289
Rp5290
sg16
g17
ssI323
(dp5291
g3
S'EURCHF'
p5292
sg5
g6
(g10
S'b6\t\xb9\x96m\xf2?'
p5293
tp5294
Rp5295
sg16
g33
ssI324
(dp5296
g3
S'EURCHF'
p5297
sg5
g6
(g10
S'\t7\xcd\t\xb8h\xf2?'
p5298
tp5299
Rp5300
sg16
g17
ssI326
(dp5301
g3
S'EURCHF'
p5302
sg5
g6
(g10
S'\x0cG\x99\x0c&}\xf2?'
p5303
tp5304
Rp5305
sg16
g17
ssI328
(dp5306
g3
S'EURCHF'
p5307
sg5
g6
(g10
S'\xd0Z\x0b\xe9\xd2~\xf2?'
p5308
tp5309
Rp5310
sg16
g17
ssI329
(dp5311
g3
S'EURCHF'
p5312
sg5
g6
(g10
S'\xeb\x10\xa0\xb6Py\xf2?'
p5313
tp5314
Rp5315
sg16
g17
ssI330
(dp5316
g3
S'EURCHF'
p5317
sg5
g6
(g10
S'\xf3h\xa4\x86\x8bz\xf2?'
p5318
tp5319
Rp5320
sg16
g17
ssI331
(dp5321
g3
S'EURCHF'
p5322
sg5
g6
(g10
S'\x19mCF\x99\x8d\xf2?'
p5323
tp5324
Rp5325
sg16
g33
ssI332
(dp5326
g3
S'EURCHF'
p5327
sg5
g6
(g10
S'\xbc\x81Wpy\x88\xf2?'
p5328
tp5329
Rp5330
sg16
g33
ssI335
(dp5331
g3
S'EURCHF'
p5332
sg5
g6
(g10
S'8L\x88\x8a\x8b[\xf2?'
p5333
tp5334
Rp5335
sg16
g17
ssI337
(dp5336
g3
S'EURCHF'
p5337
sg5
g6
(g10
S'Wke\xed\xd7e\xf2?'
p5338
tp5339
Rp5340
sg16
g33
ssI338
(dp5341
g3
S'EURCHF'
p5342
sg5
g6
(g10
S'H\xfe\xeeKfn\xf2?'
p5343
tp5344
Rp5345
sg16
g33
ssI343
(dp5346
g3
S'EURCHF'
p5347
sg5
g6
(g10
S'\xb3\x97^\x81\xb9\x8b\xf2?'
p5348
tp5349
Rp5350
sg16
g17
ssI344
(dp5351
g3
S'EURCHF'
p5352
sg5
g6
(g10
S'\xda\xc8m\x9eK\x8b\xf2?'
p5353
tp5354
Rp5355
sg16
g17
ssI349
(dp5356
g3
S'EURCHF'
p5357
sg5
g6
(g10
S'\xb9q\xa0\xb3\xeb\xa9\xf2?'
p5358
tp5359
Rp5360
sg16
g17
ssI350
(dp5361
g3
S'EURCHF'
p5362
sg5
g6
(g10
S'[U\xc1\xa1a\xb0\xf2?'
p5363
tp5364
Rp5365
sg16
g33
ssI351
(dp5366
g3
S'EURCHF'
p5367
sg5
g6
(g10
S'OK+\x0e\xae\x98\xf2?'
p5368
tp5369
Rp5370
sg16
g17
ssI353
(dp5371
g3
S'EURCHF'
p5372
sg5
g6
(g10
S'\xb2G\xe4\x7f\xbb\x87\xf2?'
p5373
tp5374
Rp5375
sg16
g17
ssI355
(dp5376
g3
S'EURCHF'
p5377
sg5
g6
(g10
S'\xa2\xa8\t\xf2M\x9f\xf2?'
p5378
tp5379
Rp5380
sg16
g17
ssI357
(dp5381
g3
S'EURCHF'
p5382
sg5
g6
(g10
S'\x9cwO\x12\xa8\xa5\xf2?'
p5383
tp5384
Rp5385
sg16
g17
ssI358
(dp5386
g3
S'EURCHF'
p5387
sg5
g6
(g10
S'\xd6\x95\x06\x16\x9e\xa7\xf2?'
p5388
tp5389
Rp5390
sg16
g17
ssI361
(dp5391
g3
S'EURCHF'
p5392
sg5
g6
(g10
S"'\xd7\xfd\xf9\x92>\xf2?"
p5393
tp5394
Rp5395
sg16
g17
ssI363
(dp5396
g3
S'EURCHF'
p5397
sg5
g6
(g10
S'\\Jlr\x9d?\xf2?'
p5398
tp5399
Rp5400
sg16
g17
ssI365
(dp5401
g3
S'EURCHF'
p5402
sg5
g6
(g10
S'\xe0\xb8\xed5n&\xf2?'
p5403
tp5404
Rp5405
sg16
g17
ssI366
(dp5406
g3
S'EURCHF'
p5407
sg5
g6
(g10
S'h\xe2\x1f\x07\xa4\x12\xf2?'
p5408
tp5409
Rp5410
sg16
g17
ssI368
(dp5411
g3
S'EURCHF'
p5412
sg5
g6
(g10
S'\xd7\x05\xb8b\xa7/\xf2?'
p5413
tp5414
Rp5415
sg16
g33
ssI369
(dp5416
g3
S'EURCHF'
p5417
sg5
g6
(g10
S'\xe0l\x8e@h\x13\xf2?'
p5418
tp5419
Rp5420
sg16
g17
ssI372
(dp5421
g3
S'EURCHF'
p5422
sg5
g6
(g10
S'\xcd\xfayK\xc1\xc4\xf1?'
p5423
tp5424
Rp5425
sg16
g17
ssI374
(dp5426
g3
S'EURCHF'
p5427
sg5
g6
(g10
S'L\xa0E\xa3\xb9\xa3\xf1?'
p5428
tp5429
Rp5430
sg16
g33
ssI376
(dp5431
g3
S'EURCHF'
p5432
sg5
g6
(g10
S'\n4\xa3\x98\xb8\xbf\xf1?'
p5433
tp5434
Rp5435
sg16
g33
ssI377
(dp5436
g3
S'EURCHF'
p5437
sg5
g6
(g10
S'\x8c\xc7f6\x1d\xc2\xf1?'
p5438
tp5439
Rp5440
sg16
g17
ssI383
(dp5441
g3
S'EURCHF'
p5442
sg5
g6
(g10
S'\xfa\xfc\x11\x82\x80\xcb\xf1?'
p5443
tp5444
Rp5445
sg16
g33
ssI384
(dp5446
g3
S'EURCHF'
p5447
sg5
g6
(g10
S'\x89{kf\xda\xc9\xf1?'
p5448
tp5449
Rp5450
sg16
g17
ssI385
(dp5451
g3
S'EURCHF'
p5452
sg5
g6
(g10
S'\xe8Tw\x1dq\xc3\xf1?'
p5453
tp5454
Rp5455
sg16
g33
ssI387
(dp5456
g3
S'EURCHF'
p5457
sg5
g6
(g10
S'\xbc%v\xcf\t\xca\xf1?'
p5458
tp5459
Rp5460
sg16
g17
ssI388
(dp5461
g3
S'EURCHF'
p5462
sg5
g6
(g10
S'\x9d?\xa7G\x95\xc9\xf1?'
p5463
tp5464
Rp5465
sg16
g33
ssI389
(dp5466
g3
S'EURCHF'
p5467
sg5
g6
(g10
S'\xac\x96.\xb9\xa3\xb3\xf1?'
p5468
tp5469
Rp5470
sg16
g17
ssI395
(dp5471
g3
S'EURCHF'
p5472
sg5
g6
(g10
S'\xb6\x17\x95\xabp\xc0\xf1?'
p5473
tp5474
Rp5475
sg16
g17
ssI397
(dp5476
g3
S'EURCHF'
p5477
sg5
g6
(g10
S'\x8b\x0f\x19Z2\xca\xf1?'
p5478
tp5479
Rp5480
sg16
g33
ssI398
(dp5481
g3
S'EURCHF'
p5482
sg5
g6
(g10
S']\xe5K!\x97\xc1\xf1?'
p5483
tp5484
Rp5485
sg16
g33
ssI399
(dp5486
g3
S'EURCHF'
p5487
sg5
g6
(g10
S'iN\xc5\x04\x0c\xe1\xf1?'
p5488
tp5489
Rp5490
sg16
g33
ssI400
(dp5491
g3
S'EURCHF'
p5492
sg5
g6
(g10
S'\x84\xb8\x1c|\x98\xf3\xf1?'
p5493
tp5494
Rp5495
sg16
g33
ssI401
(dp5496
g3
S'EURCHF'
p5497
sg5
g6
(g10
S'\xb41\x14\x14\xd4\xf3\xf1?'
p5498
tp5499
Rp5500
sg16
g33
ssI403
(dp5501
g3
S'EURCHF'
p5502
sg5
g6
(g10
S'\xe1\x9d2\xb5\x8e\xd0\xf1?'
p5503
tp5504
Rp5505
sg16
g17
ssI404
(dp5506
g3
S'EURCHF'
p5507
sg5
g6
(g10
S'\x02\x19]\xa9l\xe3\xf1?'
p5508
tp5509
Rp5510
sg16
g17
ssI405
(dp5511
g3
S'EURCHF'
p5512
sg5
g6
(g10
S'\xd3W\xa3f\x15\xd4\xf1?'
p5513
tp5514
Rp5515
sg16
g17
ssI406
(dp5516
g3
S'EURCHF'
p5517
sg5
g6
(g10
S'\x8e\xea\xe0(\x87\xcf\xf1?'
p5518
tp5519
Rp5520
sg16
g17
ssI411
(dp5521
g3
S'EURCHF'
p5522
sg5
g6
(g10
S'\x80$:\xad\xbc\x99\xf1?'
p5523
tp5524
Rp5525
sg16
g17
ssI412
(dp5526
g3
S'EURCHF'
p5527
sg5
g6
(g10
S'\xa4\xd67\xdc\xd2\xba\xf1?'
p5528
tp5529
Rp5530
sg16
g17
ssI416
(dp5531
g3
S'EURCHF'
p5532
sg5
g6
(g10
S'\xbc\xdd\xa6\x04\xbb\x9b\xf1?'
p5533
tp5534
Rp5535
sg16
g17
ssI417
(dp5536
g3
S'EURCHF'
p5537
sg5
g6
(g10
S"H<'\xef\xed\x83\xf1?"
p5538
tp5539
Rp5540
sg16
g17
ssI418
(dp5541
g3
S'EURCHF'
p5542
sg5
g6
(g10
S'[\x06\xed\x87\x82\x8a\xf1?'
p5543
tp5544
Rp5545
sg16
g17
ssI419
(dp5546
g3
S'EURCHF'
p5547
sg5
g6
(g10
S'\xa0\xdd\xde\xbb\x14\x82\xf1?'
p5548
tp5549
Rp5550
sg16
g33
ssI420
(dp5551
g3
S'EURCHF'
p5552
sg5
g6
(g10
S'"\xb7\xb2\x02*v\xf1?'
p5553
tp5554
Rp5555
sg16
g33
ssI421
(dp5556
g3
S'EURCHF'
p5557
sg5
g6
(g10
S'\x920\x99u\xb7\\\xf1?'
p5558
tp5559
Rp5560
sg16
g17
ssI423
(dp5561
g3
S'EURCHF'
p5562
sg5
g6
(g10
S'\x11\x9fD:\x9a\x9c\xf1?'
p5563
tp5564
Rp5565
sg16
g33
ssI428
(dp5566
g3
S'EURCHF'
p5567
sg5
g6
(g10
S'\xd0\xa75\x16\x11\x98\xf1?'
p5568
tp5569
Rp5570
sg16
g17
ssI429
(dp5571
g3
S'EURCHF'
p5572
sg5
g6
(g10
S'\xe6\xb5\xecwt\x99\xf1?'
p5573
tp5574
Rp5575
sg16
g33
ssI432
(dp5576
g3
S'EURCHF'
p5577
sg5
g6
(g10
S'i^\xd0\xb4\x87r\xf1?'
p5578
tp5579
Rp5580
sg16
g33
ssI436
(dp5581
g3
S'EURCHF'
p5582
sg5
g6
(g10
S'j:\xa8\xb3O\x98\xf1?'
p5583
tp5584
Rp5585
sg16
g33
ssI438
(dp5586
g3
S'EURCHF'
p5587
sg5
g6
(g10
S'\xb0p\xdd\xad\xcc\x8f\xf1?'
p5588
tp5589
Rp5590
sg16
g33
ssI439
(dp5591
g3
S'EURCHF'
p5592
sg5
g6
(g10
S'p\x91\xba\xe1\xef\x9d\xf1?'
p5593
tp5594
Rp5595
sg16
g17
ssI441
(dp5596
g3
S'EURCHF'
p5597
sg5
g6
(g10
S'\x02\xf5X\x01\xf9\x9a\xf1?'
p5598
tp5599
Rp5600
sg16
g17
ssI444
(dp5601
g3
S'EURCHF'
p5602
sg5
g6
(g10
S'\n\xdfh\xf0p\x8a\xf1?'
p5603
tp5604
Rp5605
sg16
g17
ssI445
(dp5606
g3
S'EURCHF'
p5607
sg5
g6
(g10
S',\x03h\xa5\xa8\x8a\xf1?'
p5608
tp5609
Rp5610
sg16
g33
ssI446
(dp5611
g3
S'EURCHF'
p5612
sg5
g6
(g10
S'\x8b\xb5\xaf\x9d\x9a\xa3\xf1?'
p5613
tp5614
Rp5615
sg16
g17
ssI447
(dp5616
g3
S'EURCHF'
p5617
sg5
g6
(g10
S']\xe6\xdb+v\x9e\xf1?'
p5618
tp5619
Rp5620
sg16
g33
ssI449
(dp5621
g3
S'EURCHF'
p5622
sg5
g6
(g10
S'U-f\x81\x03\xa5\xf1?'
p5623
tp5624
Rp5625
sg16
g17
ssI451
(dp5626
g3
S'EURCHF'
p5627
sg5
g6
(g10
S'\n\x84?\x82\xd6\xc2\xf1?'
p5628
tp5629
Rp5630
sg16
g17
ssI456
(dp5631
g3
S'EURCHF'
p5632
sg5
g6
(g10
S'\xb7J\xda\xe5F\x85\xf1?'
p5633
tp5634
Rp5635
sg16
g33
ssI457
(dp5636
g3
S'EURCHF'
p5637
sg5
g6
(g10
S'4\x89\x1f+\x01\x95\xf1?'
p5638
tp5639
Rp5640
sg16
g17
ssI458
(dp5641
g3
S'EURCHF'
p5642
sg5
g6
(g10
S'\xd0\x9f\xc14\xa2~\xf1?'
p5643
tp5644
Rp5645
sg16
g33
ssI464
(dp5646
g3
S'EURCHF'
p5647
sg5
g6
(g10
S'!\xf64!\xc7{\xf1?'
p5648
tp5649
Rp5650
sg16
g17
ssI465
(dp5651
g3
S'EURCHF'
p5652
sg5
g6
(g10
S"E\xa7\xe2'\rv\xf1?"
p5653
tp5654
Rp5655
sg16
g33
ssI466
(dp5656
g3
S'EURCHF'
p5657
sg5
g6
(g10
S'n\xdb\xfc{1s\xf1?'
p5658
tp5659
Rp5660
sg16
g17
ssI471
(dp5661
g3
S'EURCHF'
p5662
sg5
g6
(g10
S'\x11\x0c\xd5\xd5\x81b\xf1?'
p5663
tp5664
Rp5665
sg16
g33
ssI473
(dp5666
g3
S'EURCHF'
p5667
sg5
g6
(g10
S'\x9a\xa2\xf9y=[\xf1?'
p5668
tp5669
Rp5670
sg16
g33
ssI476
(dp5671
g3
S'EURCHF'
p5672
sg5
g6
(g10
S'\xc1`\xfb\x84<`\xf1?'
p5673
tp5674
Rp5675
sg16
g17
ssI477
(dp5676
g3
S'EURCHF'
p5677
sg5
g6
(g10
S'U\xda\xff\xde^^\xf1?'
p5678
tp5679
Rp5680
sg16
g33
ssI478
(dp5681
g3
S'EURCHF'
p5682
sg5
g6
(g10
S'|\xfd\x19DL_\xf1?'
p5683
tp5684
Rp5685
sg16
g33
ssI481
(dp5686
g3
S'EURCHF'
p5687
sg5
g6
(g10
S'm]\xb59\xbeZ\xf1?'
p5688
tp5689
Rp5690
sg16
g17
ssI486
(dp5691
g3
S'EURCHF'
p5692
sg5
g6
(g10
S'7\x7ft\xdd\xab\xba\xf1?'
p5693
tp5694
Rp5695
sg16
g17
ssI488
(dp5696
g3
S'EURCHF'
p5697
sg5
g6
(g10
S'\x02\x85N\xcdh\x8d\xf1?'
p5698
tp5699
Rp5700
sg16
g33
ssI489
(dp5701
g3
S'EURCHF'
p5702
sg5
g6
(g10
S'BZ\xbbc\x03\x87\xf1?'
p5703
tp5704
Rp5705
sg16
g33
ssI490
(dp5706
g3
S'EURCHF'
p5707
sg5
g6
(g10
S'\x9f5Y\xda\xc4\x87\xf1?'
p5708
tp5709
Rp5710
sg16
g33
ssI491
(dp5711
g3
S'EURCHF'
p5712
sg5
g6
(g10
S'M\xce\x9b\xcf\x03o\xf1?'
p5713
tp5714
Rp5715
sg16
g17
ssI492
(dp5716
g3
S'EURCHF'
p5717
sg5
g6
(g10
S'\x7f\x95[\xb4\xb4g\xf1?'
p5718
tp5719
Rp5720
sg16
g17
ssI493
(dp5721
g3
S'EURCHF'
p5722
sg5
g6
(g10
S'z\x85\xacf\x8e\x9b\xf1?'
p5723
tp5724
Rp5725
sg16
g17
ssI494
(dp5726
g3
S'EURCHF'
p5727
sg5
g6
(g10
S'\xf9\xa2\xa3\x85r\x93\xf1?'
p5728
tp5729
Rp5730
sg16
g33
ssI495
(dp5731
g3
S'EURCHF'
p5732
sg5
g6
(g10
S'\xe9\x8d\xca(%\x92\xf1?'
p5733
tp5734
Rp5735
sg16
g33
ssI496
(dp5736
g3
S'EURCHF'
p5737
sg5
g6
(g10
S'\xb73\xb8.\xd9\x9f\xf1?'
p5738
tp5739
Rp5740
sg16
g33
ssI498
(dp5741
g3
S'EURCHF'
p5742
sg5
g6
(g10
S'7\xb2\x89\x9be\xc2\xf1?'
p5743
tp5744
Rp5745
sg16
g17
ssI500
(dp5746
g3
S'EURCHF'
p5747
sg5
g6
(g10
S'\x80f@\xdf\r\xc7\xf1?'
p5748
tp5749
Rp5750
sg16
g17
ssI501
(dp5751
g3
S'EURCHF'
p5752
sg5
g6
(g10
S'\xf6\xa3\x8d1b\xe3\xf1?'
p5753
tp5754
Rp5755
sg16
g17
ssI502
(dp5756
g3
S'EURCHF'
p5757
sg5
g6
(g10
S'tL\xa0\xf4\xce\xe1\xf1?'
p5758
tp5759
Rp5760
sg16
g33
ssI503
(dp5761
g3
S'EURCHF'
p5762
sg5
g6
(g10
S'H\x90\x1f0\xa7\xc0\xf1?'
p5763
tp5764
Rp5765
sg16
g17
ssI504
(dp5766
g3
S'EURCHF'
p5767
sg5
g6
(g10
S'b\xcf\x8c\x85\xb9\xcd\xf1?'
p5768
tp5769
Rp5770
sg16
g33
ssI509
(dp5771
g3
S'EURCHF'
p5772
sg5
g6
(g10
S'\x9cAeF\xbb\xda\xf1?'
p5773
tp5774
Rp5775
sg16
g17
ssI510
(dp5776
g3
S'EURCHF'
p5777
sg5
g6
(g10
S'\xdc\xfdf\xbb\xd7\xe6\xf1?'
p5778
tp5779
Rp5780
sg16
g17
ssI512
(dp5781
g3
S'EURCHF'
p5782
sg5
g6
(g10
S'<*.\xf3\x13\xdf\xf1?'
p5783
tp5784
Rp5785
sg16
g17
ssI517
(dp5786
g3
S'EURCHF'
p5787
sg5
g6
(g10
S'xI&\xdcp\xf3\xf1?'
p5788
tp5789
Rp5790
sg16
g33
ssI518
(dp5791
g3
S'EURCHF'
p5792
sg5
g6
(g10
S'c\x0b\xcbL\xa6\x19\xf2?'
p5793
tp5794
Rp5795
sg16
g33
ssI520
(dp5796
g3
S'EURCHF'
p5797
sg5
g6
(g10
S'\x82\xac\xce\xc0\xc3\x0c\xf2?'
p5798
tp5799
Rp5800
sg16
g17
ssI521
(dp5801
g3
S'EURCHF'
p5802
sg5
g6
(g10
S'\x8e\xbfy2\xda\x10\xf2?'
p5803
tp5804
Rp5805
sg16
g17
ssI525
(dp5806
g3
S'EURCHF'
p5807
sg5
g6
(g10
S'X\x96T+RF\xf2?'
p5808
tp5809
Rp5810
sg16
g17
ssI527
(dp5811
g3
S'EURCHF'
p5812
sg5
g6
(g10
S'Y\xc2\xcen(&\xf2?'
p5813
tp5814
Rp5815
sg16
g33
ssI528
(dp5816
g3
S'EURCHF'
p5817
sg5
g6
(g10
S'\x00\x82I|>!\xf2?'
p5818
tp5819
Rp5820
sg16
g17
ssI529
(dp5821
g3
S'EURCHF'
p5822
sg5
g6
(g10
S'i\xe1\x7f\xf3@\x06\xf2?'
p5823
tp5824
Rp5825
sg16
g33
ssI530
(dp5826
g3
S'EURCHF'
p5827
sg5
g6
(g10
S'\xab\xcd\x91\x98r\x12\xf2?'
p5828
tp5829
Rp5830
sg16
g33
ssI531
(dp5831
g3
S'EURCHF'
p5832
sg5
g6
(g10
S'\x92\x0b~5\xb8\x1f\xf2?'
p5833
tp5834
Rp5835
sg16
g33
ssI532
(dp5836
g3
S'EURCHF'
p5837
sg5
g6
(g10
S'FDc\xb3\xb7,\xf2?'
p5838
tp5839
Rp5840
sg16
g33
ssI535
(dp5841
g3
S'EURCHF'
p5842
sg5
g6
(g10
S']\xe2\xeb\xf9":\xf2?'
p5843
tp5844
Rp5845
sg16
g17
ssI543
(dp5846
g3
S'EURCHF'
p5847
sg5
g6
(g10
S'\x95\xaa \xed\r\x92\xf2?'
p5848
tp5849
Rp5850
sg16
g33
ssI545
(dp5851
g3
S'EURCHF'
p5852
sg5
g6
(g10
S'$\xba\xb5\xf9\xbe\xa9\xf2?'
p5853
tp5854
Rp5855
sg16
g17
ssI549
(dp5856
g3
S'EURCHF'
p5857
sg5
g6
(g10
S'&\xa0\xcf\x83\x0f\xe2\xf2?'
p5858
tp5859
Rp5860
sg16
g17
ssI552
(dp5861
g3
S'EURCHF'
p5862
sg5
g6
(g10
S'\xe6.j\xb5\x14\xe1\xf2?'
p5863
tp5864
Rp5865
sg16
g17
ssI555
(dp5866
g3
S'EURCHF'
p5867
sg5
g6
(g10
S'T\xce5]\x06\xe9\xf2?'
p5868
tp5869
Rp5870
sg16
g33
ssI556
(dp5871
g3
S'EURCHF'
p5872
sg5
g6
(g10
S'\xc3\xeb\xa5M%\xe9\xf2?'
p5873
tp5874
Rp5875
sg16
g17
ssI557
(dp5876
g3
S'EURCHF'
p5877
sg5
g6
(g10
S'\x1aa\xd1\xf8T\xf5\xf2?'
p5878
tp5879
Rp5880
sg16
g33
ssI559
(dp5881
g3
S'EURCHF'
p5882
sg5
g6
(g10
S'\x9aN\x85&0\xf0\xf2?'
p5883
tp5884
Rp5885
sg16
g17
ssI563
(dp5886
g3
S'EURCHF'
p5887
sg5
g6
(g10
S'\xa96+\xef9\xd8\xf2?'
p5888
tp5889
Rp5890
sg16
g17
ssI564
(dp5891
g3
S'EURCHF'
p5892
sg5
g6
(g10
S'e+2\x928\xad\xf2?'
p5893
tp5894
Rp5895
sg16
g33
ssI565
(dp5896
g3
S'EURCHF'
p5897
sg5
g6
(g10
S"\x86\xf7'-b\xba\xf2?"
p5898
tp5899
Rp5900
sg16
g17
ssI571
(dp5901
g3
S'EURCHF'
p5902
sg5
g6
(g10
S'VG\x07\xb1\xd3\xc6\xf2?'
p5903
tp5904
Rp5905
sg16
g17
ssI573
(dp5906
g3
S'EURCHF'
p5907
sg5
g6
(g10
S'\n.\xa5.\xb9\xbf\xf2?'
p5908
tp5909
Rp5910
sg16
g33
ssI574
(dp5911
g3
S'EURCHF'
p5912
sg5
g6
(g10
S'Z\xa3\x07\x13\x0b\xb8\xf2?'
p5913
tp5914
Rp5915
sg16
g17
ssI576
(dp5916
g3
S'EURCHF'
p5917
sg5
g6
(g10
S'{\xb2\xe1\x84{\xc1\xf2?'
p5918
tp5919
Rp5920
sg16
g17
ssI577
(dp5921
g3
S'EURCHF'
p5922
sg5
g6
(g10
S'\xbf{D\x0f\x06\xc0\xf2?'
p5923
tp5924
Rp5925
sg16
g33
ssI581
(dp5926
g3
S'EURCHF'
p5927
sg5
g6
(g10
S'\x98\xdd\xd5-\x80p\xf2?'
p5928
tp5929
Rp5930
sg16
g33
ssI582
(dp5931
g3
S'EURCHF'
p5932
sg5
g6
(g10
S'[:ud\xe5j\xf2?'
p5933
tp5934
Rp5935
sg16
g17
ssI583
(dp5936
g3
S'EURCHF'
p5937
sg5
g6
(g10
S'\xa9\x0f&\x99Ya\xf2?'
p5938
tp5939
Rp5940
sg16
g17
ssI584
(dp5941
g3
S'EURCHF'
p5942
sg5
g6
(g10
S'\xc5\xdf\xb7\x81S\x1b\xf2?'
p5943
tp5944
Rp5945
sg16
g17
ssI589
(dp5946
g3
S'EURCHF'
p5947
sg5
g6
(g10
S'zr\x19J\xb8\x05\xf2?'
p5948
tp5949
Rp5950
sg16
g33
ssI591
(dp5951
g3
S'EURCHF'
p5952
sg5
g6
(g10
S'\xe7\x88$\xaa\xcd&\xf2?'
p5953
tp5954
Rp5955
sg16
g33
ssI592
(dp5956
g3
S'EURCHF'
p5957
sg5
g6
(g10
S'\x1d\x91!\x11\xe6%\xf2?'
p5958
tp5959
Rp5960
sg16
g17
ssI596
(dp5961
g3
S'EURCHF'
p5962
sg5
g6
(g10
S'a\x8f\xd9 \xb7\xc3\xf1?'
p5963
tp5964
Rp5965
sg16
g33
ssI598
(dp5966
g3
S'EURCHF'
p5967
sg5
g6
(g10
S"XV\xac'|\xb3\xf1?"
p5968
tp5969
Rp5970
sg16
g17
ssI606
(dp5971
g3
S'EURCHF'
p5972
sg5
g6
(g10
S'\xde\x11g#3\x16\xf2?'
p5973
tp5974
Rp5975
sg16
g33
ssI608
(dp5976
g3
S'EURCHF'
p5977
sg5
g6
(g10
S'\x08\xa7a\xa4\x1c2\xf2?'
p5978
tp5979
Rp5980
sg16
g33
ssI610
(dp5981
g3
S'EURCHF'
p5982
sg5
g6
(g10
S'\xbe#f\x7f\xdd\x17\xf2?'
p5983
tp5984
Rp5985
sg16
g33
ssI616
(dp5986
g3
S'EURCHF'
p5987
sg5
g6
(g10
S'\xf6\xa1\xbb~MW\xf2?'
p5988
tp5989
Rp5990
sg16
g17
ssI620
(dp5991
g3
S'EURCHF'
p5992
sg5
g6
(g10
S'\xa0\x9c|\xcf\xdb1\xf2?'
p5993
tp5994
Rp5995
sg16
g33
ssI621
(dp5996
g3
S'EURCHF'
p5997
sg5
g6
(g10
S'D]gx3/\xf2?'
p5998
tp5999
Rp6000
sg16
g17
ssI622
(dp6001
g3
S'EURCHF'
p6002
sg5
g6
(g10
S'\xa3B\x0e\x9de)\xf2?'
p6003
tp6004
Rp6005
sg16
g33
ssI623
(dp6006
g3
S'EURCHF'
p6007
sg5
g6
(g10
S'eDO\x96\xa54\xf2?'
p6008
tp6009
Rp6010
sg16
g33
ssI627
(dp6011
g3
S'EURCHF'
p6012
sg5
g6
(g10
S'Z\x15\xd8\x8c\x8b\x0b\xf2?'
p6013
tp6014
Rp6015
sg16
g33
ssI629
(dp6016
g3
S'EURCHF'
p6017
sg5
g6
(g10
S'\x8b{\xe0\xea^\xfa\xf1?'
p6018
tp6019
Rp6020
sg16
g17
ssI636
(dp6021
g3
S'EURCHF'
p6022
sg5
g6
(g10
S'\xa3X\xc9,\xaa\xf2\xf1?'
p6023
tp6024
Rp6025
sg16
g33
ssI641
(dp6026
g3
S'EURCHF'
p6027
sg5
g6
(g10
S'k\x16\xdd\x98\x80\xd6\xf1?'
p6028
tp6029
Rp6030
sg16
g17
ssI644
(dp6031
g3
S'EURCHF'
p6032
sg5
g6
(g10
S'3WD\xda6\xe1\xf1?'
p6033
tp6034
Rp6035
sg16
g33
ssI645
(dp6036
g3
S'EURCHF'
p6037
sg5
g6
(g10
S'\x06\xfa\xf7\xf7\x1a\xe9\xf1?'
p6038
tp6039
Rp6040
sg16
g17
ssI646
(dp6041
g3
S'EURCHF'
p6042
sg5
g6
(g10
S'\x16\x92N\x9c\xc8\xf4\xf1?'
p6043
tp6044
Rp6045
sg16
g17
ssI647
(dp6046
g3
S'EURCHF'
p6047
sg5
g6
(g10
S'KU\x84i\x1c\xfa\xf1?'
p6048
tp6049
Rp6050
sg16
g33
ssI650
(dp6051
g3
S'EURCHF'
p6052
sg5
g6
(g10
S'\xa5\xbesm\xc1\xf2\xf1?'
p6053
tp6054
Rp6055
sg16
g17
ssI653
(dp6056
g3
S'EURCHF'
p6057
sg5
g6
(g10
S'U\n\x86\x85\x0b\x06\xf2?'
p6058
tp6059
Rp6060
sg16
g17
ssI656
(dp6061
g3
S'EURCHF'
p6062
sg5
g6
(g10
S'\x13#\xd1\xb34\xe6\xf1?'
p6063
tp6064
Rp6065
sg16
g17
ssI657
(dp6066
g3
S'EURCHF'
p6067
sg5
g6
(g10
S'v\x89Q\x8c,\x1f\xf2?'
p6068
tp6069
Rp6070
sg16
g33
ssI658
(dp6071
g3
S'EURCHF'
p6072
sg5
g6
(g10
S'\xda\xdf\xa7\xe0t>\xf2?'
p6073
tp6074
Rp6075
sg16
g17
ssI660
(dp6076
g3
S'EURCHF'
p6077
sg5
g6
(g10
S'\xc4P\x87\xa6\xbb*\xf2?'
p6078
tp6079
Rp6080
sg16
g17
ssI661
(dp6081
g3
S'EURCHF'
p6082
sg5
g6
(g10
S'\x1e\x94M\xf1\xbf\x14\xf2?'
p6083
tp6084
Rp6085
sg16
g33
ssI664
(dp6086
g3
S'EURCHF'
p6087
sg5
g6
(g10
S'\xfc\xa6\xff\xc6\xc25\xf2?'
p6088
tp6089
Rp6090
sg16
g17
ssI666
(dp6091
g3
S'EURCHF'
p6092
sg5
g6
(g10
S'\xe5\x11\x8f\x16U\x17\xf2?'
p6093
tp6094
Rp6095
sg16
g33
ssI668
(dp6096
g3
S'EURCHF'
p6097
sg5
g6
(g10
S'j\xeb\t\xc6J\xc7\xf1?'
p6098
tp6099
Rp6100
sg16
g33
ssI672
(dp6101
g3
S'EURCHF'
p6102
sg5
g6
(g10
S'\x87\x8d\x97w\x99z\xf1?'
p6103
tp6104
Rp6105
sg16
g33
ssI675
(dp6106
g3
S'EURCHF'
p6107
sg5
g6
(g10
S'\xcc\x17\x9b\xf0hr\xf1?'
p6108
tp6109
Rp6110
sg16
g17
ssI676
(dp6111
g3
S'EURCHF'
p6112
sg5
g6
(g10
S'\xb9\x87R\x00\xe4w\xf1?'
p6113
tp6114
Rp6115
sg16
g17
ssI680
(dp6116
g3
S'EURCHF'
p6117
sg5
g6
(g10
S'\xa7\xe7\xf2@o\x83\xf1?'
p6118
tp6119
Rp6120
sg16
g33
ssI681
(dp6121
g3
S'EURCHF'
p6122
sg5
g6
(g10
S'\xe2X\xae\xbd\x05\x88\xf1?'
p6123
tp6124
Rp6125
sg16
g33
ssI683
(dp6126
g3
S'EURCHF'
p6127
sg5
g6
(g10
S'\xb8x#\x95G\x9f\xf1?'
p6128
tp6129
Rp6130
sg16
g33
ssI684
(dp6131
g3
S'EURCHF'
p6132
sg5
g6
(g10
S'\xb9\xaf\x81\xe4\xeb\xa9\xf1?'
p6133
tp6134
Rp6135
sg16
g33
ssI686
(dp6136
g3
S'EURCHF'
p6137
sg5
g6
(g10
S'N\xc8~\xe0\x8d\xc6\xf1?'
p6138
tp6139
Rp6140
sg16
g17
ssI687
(dp6141
g3
S'EURCHF'
p6142
sg5
g6
(g10
S'\xb2\xfeG\x84\x7f\xd8\xf1?'
p6143
tp6144
Rp6145
sg16
g17
ssI688
(dp6146
g3
S'EURCHF'
p6147
sg5
g6
(g10
S'D\xa0\x0b\x9c\xb3\xd7\xf1?'
p6148
tp6149
Rp6150
sg16
g33
ssI691
(dp6151
g3
S'EURCHF'
p6152
sg5
g6
(g10
S'\xb8\xb4\xf1L\xcb\xb9\xf1?'
p6153
tp6154
Rp6155
sg16
g33
ssI692
(dp6156
g3
S'EURCHF'
p6157
sg5
g6
(g10
S'\xfe"p\x07Y\xba\xf1?'
p6158
tp6159
Rp6160
sg16
g17
ssI694
(dp6161
g3
S'EURCHF'
p6162
sg5
g6
(g10
S'\xfe7!\x08\xd7\xbe\xf1?'
p6163
tp6164
Rp6165
sg16
g17
ssI696
(dp6166
g3
S'EURCHF'
p6167
sg5
g6
(g10
S'\x16\xcdP\x84\xea\x8c\xf1?'
p6168
tp6169
Rp6170
sg16
g33
ssI698
(dp6171
g3
S'EURCHF'
p6172
sg5
g6
(g10
S'\xbe-\x89\xf1\xadg\xf1?'
p6173
tp6174
Rp6175
sg16
g17
ssI700
(dp6176
g3
S'EURCHF'
p6177
sg5
g6
(g10
S'u\xbb\x0b\xe0\xe7A\xf1?'
p6178
tp6179
Rp6180
sg16
g17
ssI702
(dp6181
g3
S'EURCHF'
p6182
sg5
g6
(g10
S'\xb5d\x1aQF6\xf1?'
p6183
tp6184
Rp6185
sg16
g17
ssI704
(dp6186
g3
S'EURCHF'
p6187
sg5
g6
(g10
S'\xe1\xbc\xcdc\xf97\xf1?'
p6188
tp6189
Rp6190
sg16
g33
ssI705
(dp6191
g3
S'EURCHF'
p6192
sg5
g6
(g10
S'\xe2\xb2\xc7\x96a\x1f\xf1?'
p6193
tp6194
Rp6195
sg16
g17
ssI706
(dp6196
g3
S'EURCHF'
p6197
sg5
g6
(g10
S'!\xec\n&q\x18\xf1?'
p6198
tp6199
Rp6200
sg16
g17
ssI707
(dp6201
g3
S'EURCHF'
p6202
sg5
g6
(g10
S'\xc3\xdf\x1f\xa7-\x1b\xf1?'
p6203
tp6204
Rp6205
sg16
g17
ssI710
(dp6206
g3
S'EURCHF'
p6207
sg5
g6
(g10
S'\x8dw\xc0\x96\xf4"\xf1?'
p6208
tp6209
Rp6210
sg16
g17
ssI711
(dp6211
g3
S'EURCHF'
p6212
sg5
g6
(g10
S'\x1f)\xf9\xca\xd6\x1c\xf1?'
p6213
tp6214
Rp6215
sg16
g33
ssI712
(dp6216
g3
S'EURCHF'
p6217
sg5
g6
(g10
S'n=\xc3\xe4\x1d\x13\xf1?'
p6218
tp6219
Rp6220
sg16
g33
ssI713
(dp6221
g3
S'EURCHF'
p6222
sg5
g6
(g10
S'\xfd\x88\xa8\x03k\x1e\xf1?'
p6223
tp6224
Rp6225
sg16
g17
ssI714
(dp6226
g3
S'EURCHF'
p6227
sg5
g6
(g10
S'V\xdd\x93\xb2~&\xf1?'
p6228
tp6229
Rp6230
sg16
g33
ssI715
(dp6231
g3
S'EURCHF'
p6232
sg5
g6
(g10
S'\xcf[/i\xf0\xf9\xf0?'
p6233
tp6234
Rp6235
sg16
g17
ssI717
(dp6236
g3
S'EURCHF'
p6237
sg5
g6
(g10
S'\xcc+\xadj^\xd1\xf0?'
p6238
tp6239
Rp6240
sg16
g33
ssI718
(dp6241
g3
S'EURCHF'
p6242
sg5
g6
(g10
S':\x9b\xd5W\xd1\xd7\xf0?'
p6243
tp6244
Rp6245
sg16
g33
ssI720
(dp6246
g3
S'EURCHF'
p6247
sg5
g6
(g10
S',k\xb5t\x98\xe7\xf0?'
p6248
tp6249
Rp6250
sg16
g17
ssI721
(dp6251
g3
S'EURCHF'
p6252
sg5
g6
(g10
S'Ec\x06\x9b\x81\xde\xf0?'
p6253
tp6254
Rp6255
sg16
g33
ssI722
(dp6256
g3
S'EURCHF'
p6257
sg5
g6
(g10
S'\x08R\x84\xf8t\xd5\xf0?'
p6258
tp6259
Rp6260
sg16
g17
ssI723
(dp6261
g3
S'EURCHF'
p6262
sg5
g6
(g10
S'\xc8\x03\xd8\xba\x01\xef\xf0?'
p6263
tp6264
Rp6265
sg16
g17
ssI726
(dp6266
g3
S'EURCHF'
p6267
sg5
g6
(g10
S'\xf7\xcfU\x0e\x97\xd7\xf0?'
p6268
tp6269
Rp6270
sg16
g17
ssI730
(dp6271
g3
S'EURCHF'
p6272
sg5
g6
(g10
S'FS\x85\xb5e\xed\xf0?'
p6273
tp6274
Rp6275
sg16
g17
ssI733
(dp6276
g3
S'EURCHF'
p6277
sg5
g6
(g10
S'\x1c2n\xc3\xca\xe2\xf0?'
p6278
tp6279
Rp6280
sg16
g17
ssI739
(dp6281
g3
S'EURCHF'
p6282
sg5
g6
(g10
S'\xfd\xf4\xf9@\xba\x13\xf1?'
p6283
tp6284
Rp6285
sg16
g33
ssI741
(dp6286
g3
S'EURCHF'
p6287
sg5
g6
(g10
S'\xea\x06\x9b6~>\xf1?'
p6288
tp6289
Rp6290
sg16
g17
ssI745
(dp6291
g3
S'EURCHF'
p6292
sg5
g6
(g10
S'\x10\x19\xff\xac\x9eY\xf1?'
p6293
tp6294
Rp6295
sg16
g17
ssI747
(dp6296
g3
S'EURCHF'
p6297
sg5
g6
(g10
S"'\xad]<\x0e\x7f\xf1?"
p6298
tp6299
Rp6300
sg16
g17
ssI748
(dp6301
g3
S'EURCHF'
p6302
sg5
g6
(g10
S'f\xce\xeb@\x0f\xc2\xf1?'
p6303
tp6304
Rp6305
sg16
g33
ssI753
(dp6306
g3
S'EURCHF'
p6307
sg5
g6
(g10
S'\xe9\x0e\xbbM\x0e\xf9\xf1?'
p6308
tp6309
Rp6310
sg16
g33
ssI755
(dp6311
g3
S'EURCHF'
p6312
sg5
g6
(g10
S'\xa7\xd6\xa2\xca\xb5\xf9\xf1?'
p6313
tp6314
Rp6315
sg16
g33
ssI758
(dp6316
g3
S'EURCHF'
p6317
sg5
g6
(g10
S'\xfc\xa5\xees\r\xbe\xf1?'
p6318
tp6319
Rp6320
sg16
g33
ssI761
(dp6321
g3
S'EURCHF'
p6322
sg5
g6
(g10
S'\xc8\xf4\xa5[\x9a\x8f\xf1?'
p6323
tp6324
Rp6325
sg16
g17
ssI764
(dp6326
g3
S'EURCHF'
p6327
sg5
g6
(g10
S'U\x82Rs\x9f\xa5\xf1?'
p6328
tp6329
Rp6330
sg16
g33
ssI765
(dp6331
g3
S'EURCHF'
p6332
sg5
g6
(g10
S'6\xeba\xbc\xf2\x8f\xf1?'
p6333
tp6334
Rp6335
sg16
g17
ssI767
(dp6336
g3
S'EURCHF'
p6337
sg5
g6
(g10
S'\xb2\x0b\xa2\xda\xbf\xa5\xf1?'
p6338
tp6339
Rp6340
sg16
g17
ssI768
(dp6341
g3
S'EURCHF'
p6342
sg5
g6
(g10
S'\r\x89\x1d\xd0\xfa\xbd\xf1?'
p6343
tp6344
Rp6345
sg16
g17
ssI769
(dp6346
g3
S'EURCHF'
p6347
sg5
g6
(g10
S'\x8b\xf2\t>\x99\xa8\xf1?'
p6348
tp6349
Rp6350
sg16
g17
ssI770
(dp6351
g3
S'EURCHF'
p6352
sg5
g6
(g10
S'\xd6e\x9e\xab\x11\x89\xf1?'
p6353
tp6354
Rp6355
sg16
g17
ssI771
(dp6356
g3
S'EURCHF'
p6357
sg5
g6
(g10
S'\x15g{+*\x7f\xf1?'
p6358
tp6359
Rp6360
sg16
g17
ssI772
(dp6361
g3
S'EURCHF'
p6362
sg5
g6
(g10
S'Q+\x1b\xc5F\x89\xf1?'
p6363
tp6364
Rp6365
sg16
g33
ssI773
(dp6366
g3
S'EURCHF'
p6367
sg5
g6
(g10
S'\xa8\x9agD\x94\x87\xf1?'
p6368
tp6369
Rp6370
sg16
g33
ssI774
(dp6371
g3
S'EURCHF'
p6372
sg5
g6
(g10
S'\x96\x9c\x98\xa3Rl\xf1?'
p6373
tp6374
Rp6375
sg16
g33
ssI776
(dp6376
g3
S'EURCHF'
p6377
sg5
g6
(g10
S'\x15J51pw\xf1?'
p6378
tp6379
Rp6380
sg16
g33
ssI778
(dp6381
g3
S'EURCHF'
p6382
sg5
g6
(g10
S'\xe6\x9d\xe6\xba\x80$\xf1?'
p6383
tp6384
Rp6385
sg16
g33
ssI780
(dp6386
g3
S'EURCHF'
p6387
sg5
g6
(g10
S'\xfa\x81\xec\x8a*(\xf1?'
p6388
tp6389
Rp6390
sg16
g33
ssI783
(dp6391
g3
S'EURCHF'
p6392
sg5
g6
(g10
S'K^\xd5\xb2\x92\x90\xf1?'
p6393
tp6394
Rp6395
sg16
g17
ssI784
(dp6396
g3
S'EURCHF'
p6397
sg5
g6
(g10
S'\x1f\xa7\xdd\xfc\xb5\x98\xf1?'
p6398
tp6399
Rp6400
sg16
g33
ssI785
(dp6401
g3
S'EURCHF'
p6402
sg5
g6
(g10
S'\xe03\x01=s\xbe\xf1?'
p6403
tp6404
Rp6405
sg16
g17
ssI787
(dp6406
g3
S'EURCHF'
p6407
sg5
g6
(g10
S'\xcaf\x99\x8f&\xc4\xf1?'
p6408
tp6409
Rp6410
sg16
g33
ssI788
(dp6411
g3
S'EURCHF'
p6412
sg5
g6
(g10
S'\xb8\x84;0\xaa\xcf\xf1?'
p6413
tp6414
Rp6415
sg16
g33
ssI791
(dp6416
g3
S'EURCHF'
p6417
sg5
g6
(g10
S'\xe1C{\xdb\xaa\xc6\xf1?'
p6418
tp6419
Rp6420
sg16
g17
ssI793
(dp6421
g3
S'EURCHF'
p6422
sg5
g6
(g10
S'\xb3\xcd\xe9`\xf5\x97\xf1?'
p6423
tp6424
Rp6425
sg16
g17
ssI795
(dp6426
g3
S'EURCHF'
p6427
sg5
g6
(g10
S'\x00%\xf0\xde\xb8\x95\xf1?'
p6428
tp6429
Rp6430
sg16
g33
ssI796
(dp6431
g3
S'EURCHF'
p6432
sg5
g6
(g10
S'\xe85p\x94\xd3\x85\xf1?'
p6433
tp6434
Rp6435
sg16
g17
ssI797
(dp6436
g3
S'EURCHF'
p6437
sg5
g6
(g10
S'\x06\xdel{\xa4\xa3\xf1?'
p6438
tp6439
Rp6440
sg16
g33
ssI798
(dp6441
g3
S'EURCHF'
p6442
sg5
g6
(g10
S'\xccT\xa7\xf9h{\xf1?'
p6443
tp6444
Rp6445
sg16
g33
ssI802
(dp6446
g3
S'EURCHF'
p6447
sg5
g6
(g10
S'\xd7\t\x8bY\xa5k\xf1?'
p6448
tp6449
Rp6450
sg16
g33
ssI803
(dp6451
g3
S'EURCHF'
p6452
sg5
g6
(g10
S'(I\xc43ng\xf1?'
p6453
tp6454
Rp6455
sg16
g17
ssI804
(dp6456
g3
S'EURCHF'
p6457
sg5
g6
(g10
S'\xd8\xfb\xc3\x04\x08B\xf1?'
p6458
tp6459
Rp6460
sg16
g33
ssI805
(dp6461
g3
S'EURCHF'
p6462
sg5
g6
(g10
S'/\xec\xaa\xe6,`\xf1?'
p6463
tp6464
Rp6465
sg16
g17
ssI806
(dp6466
g3
S'EURCHF'
p6467
sg5
g6
(g10
S'\xcd\xe59Jpo\xf1?'
p6468
tp6469
Rp6470
sg16
g33
ssI807
(dp6471
g3
S'EURCHF'
p6472
sg5
g6
(g10
S'[-H\xe9]j\xf1?'
p6473
tp6474
Rp6475
sg16
g33
ssI809
(dp6476
g3
S'EURCHF'
p6477
sg5
g6
(g10
S'\xae\xca\xb37\xaeu\xf1?'
p6478
tp6479
Rp6480
sg16
g17
ssI814
(dp6481
g3
S'EURCHF'
p6482
sg5
g6
(g10
S'\xb9\xc4b\xf9\xcb\x8e\xf1?'
p6483
tp6484
Rp6485
sg16
g33
ssI816
(dp6486
g3
S'EURCHF'
p6487
sg5
g6
(g10
S'\x88\xde\xe4\xc8\x0c\x9a\xf1?'
p6488
tp6489
Rp6490
sg16
g33
ssI817
(dp6491
g3
S'EURCHF'
p6492
sg5
g6
(g10
S'p\xe1^@.\x83\xf1?'
p6493
tp6494
Rp6495
sg16
g33
ssI820
(dp6496
g3
S'EURCHF'
p6497
sg5
g6
(g10
S'Mi\xccOko\xf1?'
p6498
tp6499
Rp6500
sg16
g17
ssI821
(dp6501
g3
S'EURCHF'
p6502
sg5
g6
(g10
S'i>\\\x0f\xe3n\xf1?'
p6503
tp6504
Rp6505
sg16
g17
ssI825
(dp6506
g3
S'EURCHF'
p6507
sg5
g6
(g10
S'=\x8c\x0b,\xe6t\xf1?'
p6508
tp6509
Rp6510
sg16
g33
ssI831
(dp6511
g3
S'EURCHF'
p6512
sg5
g6
(g10
S'\x87H\xdc\xa0fq\xf1?'
p6513
tp6514
Rp6515
sg16
g33
ssI832
(dp6516
g3
S'EURCHF'
p6517
sg5
g6
(g10
S'f\xa6\xad\xacux\xf1?'
p6518
tp6519
Rp6520
sg16
g33
ssI833
(dp6521
g3
S'EURCHF'
p6522
sg5
g6
(g10
S'\xf8EZ\xbf\x18;\xf1?'
p6523
tp6524
Rp6525
sg16
g17
ssI835
(dp6526
g3
S'EURCHF'
p6527
sg5
g6
(g10
S'\xeeWL\x00i\x02\xf1?'
p6528
tp6529
Rp6530
sg16
g33
ssI836
(dp6531
g3
S'EURCHF'
p6532
sg5
g6
(g10
S'\xc6\xe5{\xe1h\xff\xf0?'
p6533
tp6534
Rp6535
sg16
g33
ssI837
(dp6536
g3
S'EURCHF'
p6537
sg5
g6
(g10
S'R\xb2\xbe\xcb% \xf1?'
p6538
tp6539
Rp6540
sg16
g33
ssI838
(dp6541
g3
S'EURCHF'
p6542
sg5
g6
(g10
S'\xab\x84Bd\x9f\x01\xf1?'
p6543
tp6544
Rp6545
sg16
g17
ssI839
(dp6546
g3
S'EURCHF'
p6547
sg5
g6
(g10
S'\x93\xe0\xdeC\x10\xfd\xf0?'
p6548
tp6549
Rp6550
sg16
g33
ssI840
(dp6551
g3
S'EURCHF'
p6552
sg5
g6
(g10
S'\x98\x9e\x92\x17\x15\n\xf1?'
p6553
tp6554
Rp6555
sg16
g33
ssI847
(dp6556
g3
S'EURCHF'
p6557
sg5
g6
(g10
S'`\x9cxqC\xe8\xf0?'
p6558
tp6559
Rp6560
sg16
g17
ssI848
(dp6561
g3
S'EURCHF'
p6562
sg5
g6
(g10
S'sK\xa6[\xda\xe8\xf0?'
p6563
tp6564
Rp6565
sg16
g17
ssI849
(dp6566
g3
S'EURCHF'
p6567
sg5
g6
(g10
S'\x9d\x81\xca\xc5\x11\xd0\xf0?'
p6568
tp6569
Rp6570
sg16
g33
ssI850
(dp6571
g3
S'EURCHF'
p6572
sg5
g6
(g10
S'\x0f\xf6\x13\x16\xa1\xd8\xf0?'
p6573
tp6574
Rp6575
sg16
g17
ssI852
(dp6576
g3
S'EURCHF'
p6577
sg5
g6
(g10
S'=^\x8c\xf4\x87\xb5\xf0?'
p6578
tp6579
Rp6580
sg16
g17
ssI856
(dp6581
g3
S'EURCHF'
p6582
sg5
g6
(g10
S'\xd8\xe0\xf3\x9d\xcd\xf5\xf0?'
p6583
tp6584
Rp6585
sg16
g17
ssI857
(dp6586
g3
S'EURCHF'
p6587
sg5
g6
(g10
S'\n\xc09l\xf0\xcc\xf0?'
p6588
tp6589
Rp6590
sg16
g17
ssI859
(dp6591
g3
S'EURCHF'
p6592
sg5
g6
(g10
S'\xe5r6_\x97\xf4\xf0?'
p6593
tp6594
Rp6595
sg16
g17
ssI863
(dp6596
g3
S'EURCHF'
p6597
sg5
g6
(g10
S'\xf5\xf2x\xb1&\xdc\xf0?'
p6598
tp6599
Rp6600
sg16
g33
ssI864
(dp6601
g3
S'EURCHF'
p6602
sg5
g6
(g10
S'\x93`\x85\xf3\x98\xbd\xf0?'
p6603
tp6604
Rp6605
sg16
g17
ssI865
(dp6606
g3
S'EURCHF'
p6607
sg5
g6
(g10
S'\xd8\xd2f\x063\xf5\xf0?'
p6608
tp6609
Rp6610
sg16
g17
ssI866
(dp6611
g3
S'EURCHF'
p6612
sg5
g6
(g10
S'\x0f\x98\xadVk\xfd\xf0?'
p6613
tp6614
Rp6615
sg16
g17
ssI868
(dp6616
g3
S'EURCHF'
p6617
sg5
g6
(g10
S'\xf69z\xc1\x12\xfb\xf0?'
p6618
tp6619
Rp6620
sg16
g17
ssa(dp6621
I0
(dp6622
g3
S'CHFJPY'
p6623
sg5
g6
(g10
S'\xa0\r\x88\x19\xf6\x0c\\@'
p6624
tp6625
Rp6626
sg16
g17
ssI1
(dp6627
g3
S'CHFJPY'
p6628
sg5
g6
(g10
S'\x06<6\x07n\x02\\@'
p6629
tp6630
Rp6631
sg16
g33
ssI5
(dp6632
g3
S'CHFJPY'
p6633
sg5
g6
(g10
S'\x90FV\xa9`\t\\@'
p6634
tp6635
Rp6636
sg16
g33
ssI6
(dp6637
g3
S'CHFJPY'
p6638
sg5
g6
(g10
S'\xa2@#\xc0\xb0\x03\\@'
p6639
tp6640
Rp6641
sg16
g17
ssI7
(dp6642
g3
S'CHFJPY'
p6643
sg5
g6
(g10
S'n \r\xfa:\x03\\@'
p6644
tp6645
Rp6646
sg16
g33
ssI9
(dp6647
g3
S'CHFJPY'
p6648
sg5
g6
(g10
S'_\x85\xf5\xfc\x07\r\\@'
p6649
tp6650
Rp6651
sg16
g33
ssI15
(dp6652
g3
S'CHFJPY'
p6653
sg5
g6
(g10
S'e\x1f\xc8\xa6\x04q\\@'
p6654
tp6655
Rp6656
sg16
g33
ssI18
(dp6657
g3
S'CHFJPY'
p6658
sg5
g6
(g10
S']\xfe\x13v\xd1\xfa\\@'
p6659
tp6660
Rp6661
sg16
g17
ssI19
(dp6662
g3
S'CHFJPY'
p6663
sg5
g6
(g10
S'\x9d\xc2\xb6\x1br\xd5\\@'
p6664
tp6665
Rp6666
sg16
g17
ssI22
(dp6667
g3
S'CHFJPY'
p6668
sg5
g6
(g10
S'e\xf9\x96\xd6\xd4o\\@'
p6669
tp6670
Rp6671
sg16
g33
ssI24
(dp6672
g3
S'CHFJPY'
p6673
sg5
g6
(g10
S'\xdc\xa8\xce$m\xc8\\@'
p6674
tp6675
Rp6676
sg16
g33
ssI25
(dp6677
g3
S'CHFJPY'
p6678
sg5
g6
(g10
S'\xbem\x1bu\xff\xc6\\@'
p6679
tp6680
Rp6681
sg16
g33
ssI26
(dp6682
g3
S'CHFJPY'
p6683
sg5
g6
(g10
S'w\xda\xae\xb8J\xcb\\@'
p6684
tp6685
Rp6686
sg16
g33
ssI27
(dp6687
g3
S'CHFJPY'
p6688
sg5
g6
(g10
S'k\xb2,\xd5\x92\xf4\\@'
p6689
tp6690
Rp6691
sg16
g33
ssI31
(dp6692
g3
S'CHFJPY'
p6693
sg5
g6
(g10
S'\xd0\x024\x84\xd7\x17]@'
p6694
tp6695
Rp6696
sg16
g33
ssI32
(dp6697
g3
S'CHFJPY'
p6698
sg5
g6
(g10
S'\x9f\xef\x89\xe8\xbb\x1f]@'
p6699
tp6700
Rp6701
sg16
g33
ssI40
(dp6702
g3
S'CHFJPY'
p6703
sg5
g6
(g10
S'\x1c\xed\x91d~P]@'
p6704
tp6705
Rp6706
sg16
g33
ssI43
(dp6707
g3
S'CHFJPY'
p6708
sg5
g6
(g10
S'd~\x9b\x1f\xb9U]@'
p6709
tp6710
Rp6711
sg16
g17
ssI46
(dp6712
g3
S'CHFJPY'
p6713
sg5
g6
(g10
S'\xb5\x8a\xfb\x12hM]@'
p6714
tp6715
Rp6716
sg16
g33
ssI47
(dp6717
g3
S'CHFJPY'
p6718
sg5
g6
(g10
S'\x8b\x80\xe7\xf0rF]@'
p6719
tp6720
Rp6721
sg16
g33
ssI50
(dp6722
g3
S'CHFJPY'
p6723
sg5
g6
(g10
S'\xd1\x95\xb3\x98\xc5D]@'
p6724
tp6725
Rp6726
sg16
g33
ssI51
(dp6727
g3
S'CHFJPY'
p6728
sg5
g6
(g10
S'\xb9u\x1ak\x8aa]@'
p6729
tp6730
Rp6731
sg16
g33
ssI52
(dp6732
g3
S'CHFJPY'
p6733
sg5
g6
(g10
S'\xe2\xed\xd9\xef\x05Z]@'
p6734
tp6735
Rp6736
sg16
g17
ssI54
(dp6737
g3
S'CHFJPY'
p6738
sg5
g6
(g10
S'\xc9I\x93<\xf4s]@'
p6739
tp6740
Rp6741
sg16
g17
ssI55
(dp6742
g3
S'CHFJPY'
p6743
sg5
g6
(g10
S'\x19\x1a(\x80lb]@'
p6744
tp6745
Rp6746
sg16
g33
ssI56
(dp6747
g3
S'CHFJPY'
p6748
sg5
g6
(g10
S'_\x99\x982^\x9a]@'
p6749
tp6750
Rp6751
sg16
g17
ssI58
(dp6752
g3
S'CHFJPY'
p6753
sg5
g6
(g10
S'rr\xe8\xf4\xe4e]@'
p6754
tp6755
Rp6756
sg16
g17
ssI59
(dp6757
g3
S'CHFJPY'
p6758
sg5
g6
(g10
S'\xc1$\xd6\xfb\xb3i]@'
p6759
tp6760
Rp6761
sg16
g17
ssI60
(dp6762
g3
S'CHFJPY'
p6763
sg5
g6
(g10
S';/\xd8\xfc5w]@'
p6764
tp6765
Rp6766
sg16
g17
ssI61
(dp6767
g3
S'CHFJPY'
p6768
sg5
g6
(g10
S'g\x16\xb8\x07\xc5d]@'
p6769
tp6770
Rp6771
sg16
g17
ssI66
(dp6772
g3
S'CHFJPY'
p6773
sg5
g6
(g10
S'\xd2\xda/\xe4\xb4\r]@'
p6774
tp6775
Rp6776
sg16
g17
ssI67
(dp6777
g3
S'CHFJPY'
p6778
sg5
g6
(g10
S'\x1d\xbd6}\xa0\xc6\\@'
p6779
tp6780
Rp6781
sg16
g17
ssI70
(dp6782
g3
S'CHFJPY'
p6783
sg5
g6
(g10
S'\x94\x1a\xbc\xafl\xdd\\@'
p6784
tp6785
Rp6786
sg16
g33
ssI72
(dp6787
g3
S'CHFJPY'
p6788
sg5
g6
(g10
S'\x86FnC#\xd5\\@'
p6789
tp6790
Rp6791
sg16
g33
ssI73
(dp6792
g3
S'CHFJPY'
p6793
sg5
g6
(g10
S'\x04\xd8s\x0e\x18\xcb\\@'
p6794
tp6795
Rp6796
sg16
g33
ssI75
(dp6797
g3
S'CHFJPY'
p6798
sg5
g6
(g10
S'\x9an\xaf\xa5H\xeb\\@'
p6799
tp6800
Rp6801
sg16
g33
ssI76
(dp6802
g3
S'CHFJPY'
p6803
sg5
g6
(g10
S'\xb6\xf7\xc3[\x92\xfe\\@'
p6804
tp6805
Rp6806
sg16
g33
ssI77
(dp6807
g3
S'CHFJPY'
p6808
sg5
g6
(g10
S"\xe7t\x13\x0c'\x0e]@"
p6809
tp6810
Rp6811
sg16
g17
ssI79
(dp6812
g3
S'CHFJPY'
p6813
sg5
g6
(g10
S'\x1b#\xec\x82\xce\x01]@'
p6814
tp6815
Rp6816
sg16
g33
ssI84
(dp6817
g3
S'CHFJPY'
p6818
sg5
g6
(g10
S'\xdc\xf3\xd5\xa0\xf2\x0e]@'
p6819
tp6820
Rp6821
sg16
g33
ssI85
(dp6822
g3
S'CHFJPY'
p6823
sg5
g6
(g10
S'\n\xbd(\xf1\xb7$]@'
p6824
tp6825
Rp6826
sg16
g17
ssI89
(dp6827
g3
S'CHFJPY'
p6828
sg5
g6
(g10
S'.\xb0\x89\x06a\x15]@'
p6829
tp6830
Rp6831
sg16
g33
ssI90
(dp6832
g3
S'CHFJPY'
p6833
sg5
g6
(g10
S'>bz\x8c\xa8\x17]@'
p6834
tp6835
Rp6836
sg16
g33
ssI92
(dp6837
g3
S'CHFJPY'
p6838
sg5
g6
(g10
S'\x98VBp\x84\x0e]@'
p6839
tp6840
Rp6841
sg16
g17
ssI94
(dp6842
g3
S'CHFJPY'
p6843
sg5
g6
(g10
S'\x99\xa5C\xe3\xfc(]@'
p6844
tp6845
Rp6846
sg16
g33
ssI95
(dp6847
g3
S'CHFJPY'
p6848
sg5
g6
(g10
S'\xe2\x10P\xc3F ]@'
p6849
tp6850
Rp6851
sg16
g33
ssI98
(dp6852
g3
S'CHFJPY'
p6853
sg5
g6
(g10
S'\xa6N\xc1\xc3\x1a\x9f]@'
p6854
tp6855
Rp6856
sg16
g33
ssI99
(dp6857
g3
S'CHFJPY'
p6858
sg5
g6
(g10
S'\xfc\xc1\xc5e\xf0\xac]@'
p6859
tp6860
Rp6861
sg16
g33
ssI100
(dp6862
g3
S'CHFJPY'
p6863
sg5
g6
(g10
S'B\x1d\x1a\xaaS\xf4]@'
p6864
tp6865
Rp6866
sg16
g17
ssI101
(dp6867
g3
S'CHFJPY'
p6868
sg5
g6
(g10
S'\x00u\x1cv{\x0b^@'
p6869
tp6870
Rp6871
sg16
g17
ssI103
(dp6872
g3
S'CHFJPY'
p6873
sg5
g6
(g10
S'&>|\x90l\xf7]@'
p6874
tp6875
Rp6876
sg16
g17
ssI105
(dp6877
g3
S'CHFJPY'
p6878
sg5
g6
(g10
S"\xb4Z\xb5'\xf0\xdf]@"
p6879
tp6880
Rp6881
sg16
g17
ssI106
(dp6882
g3
S'CHFJPY'
p6883
sg5
g6
(g10
S'O\x1e\x83\xc6\xca\xbf]@'
p6884
tp6885
Rp6886
sg16
g33
ssI107
(dp6887
g3
S'CHFJPY'
p6888
sg5
g6
(g10
S'\x8c\xc1\x02\xff\xcb\x9e]@'
p6889
tp6890
Rp6891
sg16
g33
ssI114
(dp6892
g3
S'CHFJPY'
p6893
sg5
g6
(g10
S'\x05C{\x9d:\x11^@'
p6894
tp6895
Rp6896
sg16
g17
ssI115
(dp6897
g3
S'CHFJPY'
p6898
sg5
g6
(g10
S'\xc7A\xca\xe6\xb9\xe2]@'
p6899
tp6900
Rp6901
sg16
g17
ssI116
(dp6902
g3
S'CHFJPY'
p6903
sg5
g6
(g10
S'\xe8\xef\x11\xb6q\xc5]@'
p6904
tp6905
Rp6906
sg16
g33
ssI117
(dp6907
g3
S'CHFJPY'
p6908
sg5
g6
(g10
S'\x9a\x0c\xa7\x080\xc0]@'
p6909
tp6910
Rp6911
sg16
g33
ssI122
(dp6912
g3
S'CHFJPY'
p6913
sg5
g6
(g10
S'b\xe6\x8f\xbbf\xc9]@'
p6914
tp6915
Rp6916
sg16
g17
ssI123
(dp6917
g3
S'CHFJPY'
p6918
sg5
g6
(g10
S'r\xea\x91\xf4\xc3\xcf]@'
p6919
tp6920
Rp6921
sg16
g17
ssI126
(dp6922
g3
S'CHFJPY'
p6923
sg5
g6
(g10
S'Y\xd2\xe2n\x85\xd7]@'
p6924
tp6925
Rp6926
sg16
g17
ssI127
(dp6927
g3
S'CHFJPY'
p6928
sg5
g6
(g10
S'`\xf3\xfd.q\xb4]@'
p6929
tp6930
Rp6931
sg16
g17
ssI128
(dp6932
g3
S'CHFJPY'
p6933
sg5
g6
(g10
S'H*\n\xa0*L]@'
p6934
tp6935
Rp6936
sg16
g17
ssI129
(dp6937
g3
S'CHFJPY'
p6938
sg5
g6
(g10
S'ab\x05\x84_K]@'
p6939
tp6940
Rp6941
sg16
g17
ssI130
(dp6942
g3
S'CHFJPY'
p6943
sg5
g6
(g10
S'm\x02\xa7\x98PR]@'
p6944
tp6945
Rp6946
sg16
g17
ssI131
(dp6947
g3
S'CHFJPY'
p6948
sg5
g6
(g10
S'@$\x82Yq:]@'
p6949
tp6950
Rp6951
sg16
g17
ssI135
(dp6952
g3
S'CHFJPY'
p6953
sg5
g6
(g10
S'\x8fnO\x8e\xa8\xe0\\@'
p6954
tp6955
Rp6956
sg16
g17
ssI136
(dp6957
g3
S'CHFJPY'
p6958
sg5
g6
(g10
S'\xef\x84\xf6~\xa8\xad\\@'
p6959
tp6960
Rp6961
sg16
g33
ssI139
(dp6962
g3
S'CHFJPY'
p6963
sg5
g6
(g10
S'\xd9\xfc;\xdf$\x9b\\@'
p6964
tp6965
Rp6966
sg16
g17
ssI141
(dp6967
g3
S'CHFJPY'
p6968
sg5
g6
(g10
S'\xa9\xb6@\xef?\xb3\\@'
p6969
tp6970
Rp6971
sg16
g17
ssI148
(dp6972
g3
S'CHFJPY'
p6973
sg5
g6
(g10
S'\xe4\x1eo?\xc4\x8e\\@'
p6974
tp6975
Rp6976
sg16
g33
ssI153
(dp6977
g3
S'CHFJPY'
p6978
sg5
g6
(g10
S'\x01\xe2]]g\x91\\@'
p6979
tp6980
Rp6981
sg16
g17
ssI154
(dp6982
g3
S'CHFJPY'
p6983
sg5
g6
(g10
S'\x03\x1d\xa5[E\x9d\\@'
p6984
tp6985
Rp6986
sg16
g17
ssI157
(dp6987
g3
S'CHFJPY'
p6988
sg5
g6
(g10
S'i9\xc6\xe8\xa2J\\@'
p6989
tp6990
Rp6991
sg16
g17
ssI159
(dp6992
g3
S'CHFJPY'
p6993
sg5
g6
(g10
S'8\xaa\xd6\x17\xd71\\@'
p6994
tp6995
Rp6996
sg16
g17
ssI160
(dp6997
g3
S'CHFJPY'
p6998
sg5
g6
(g10
S'#,\xb5\xf3\xee&\\@'
p6999
tp7000
Rp7001
sg16
g33
ssI161
(dp7002
g3
S'CHFJPY'
p7003
sg5
g6
(g10
S'\xce\xd9\xcdA{\x14\\@'
p7004
tp7005
Rp7006
sg16
g33
ssI162
(dp7007
g3
S'CHFJPY'
p7008
sg5
g6
(g10
S'\x84\xbc\xb73\xd9\x0b\\@'
p7009
tp7010
Rp7011
sg16
g17
ssI163
(dp7012
g3
S'CHFJPY'
p7013
sg5
g6
(g10
S'@d\xe9\x9d\xa46\\@'
p7014
tp7015
Rp7016
sg16
g17
ssI164
(dp7017
g3
S'CHFJPY'
p7018
sg5
g6
(g10
S'\xc7\xd1\x1d_\x95\x02\\@'
p7019
tp7020
Rp7021
sg16
g17
ssI166
(dp7022
g3
S'CHFJPY'
p7023
sg5
g6
(g10
S'\xa4\xf78\xf6\xfd.\\@'
p7024
tp7025
Rp7026
sg16
g17
ssI167
(dp7027
g3
S'CHFJPY'
p7028
sg5
g6
(g10
S'\x12\x84\xf7DY\x04\\@'
p7029
tp7030
Rp7031
sg16
g17
ssI168
(dp7032
g3
S'CHFJPY'
p7033
sg5
g6
(g10
S'\x02\xe3\x133\x98\x00\\@'
p7034
tp7035
Rp7036
sg16
g17
ssI171
(dp7037
g3
S'CHFJPY'
p7038
sg5
g6
(g10
S'B\x80\xaeC\xbf\x8b[@'
p7039
tp7040
Rp7041
sg16
g33
ssI174
(dp7042
g3
S'CHFJPY'
p7043
sg5
g6
(g10
S'\x03\xb3\xff\xdc\xfc\xdb[@'
p7044
tp7045
Rp7046
sg16
g17
ssI177
(dp7047
g3
S'CHFJPY'
p7048
sg5
g6
(g10
S'\xf5\x0c\x16\x91k\x99[@'
p7049
tp7050
Rp7051
sg16
g17
ssI179
(dp7052
g3
S'CHFJPY'
p7053
sg5
g6
(g10
S'c\xb8\x95\x08\x9c\x80[@'
p7054
tp7055
Rp7056
sg16
g17
ssI183
(dp7057
g3
S'CHFJPY'
p7058
sg5
g6
(g10
S'N\xe3cc\xb4\x0f[@'
p7059
tp7060
Rp7061
sg16
g33
ssI184
(dp7062
g3
S'CHFJPY'
p7063
sg5
g6
(g10
S'\x0c\x83\x05k\xa2\xe8Z@'
p7064
tp7065
Rp7066
sg16
g33
ssI185
(dp7067
g3
S'CHFJPY'
p7068
sg5
g6
(g10
S'\xcc\xfc\xa8\x0f\xd1\t[@'
p7069
tp7070
Rp7071
sg16
g33
ssI186
(dp7072
g3
S'CHFJPY'
p7073
sg5
g6
(g10
S"\x8f\xf3'\xd7]\x1d[@"
p7074
tp7075
Rp7076
sg16
g33
ssI191
(dp7077
g3
S'CHFJPY'
p7078
sg5
g6
(g10
S'\xd0\xc4`\tL@[@'
p7079
tp7080
Rp7081
sg16
g33
ssI193
(dp7082
g3
S'CHFJPY'
p7083
sg5
g6
(g10
S'w}c\xd9R,[@'
p7084
tp7085
Rp7086
sg16
g33
ssI194
(dp7087
g3
S'CHFJPY'
p7088
sg5
g6
(g10
S'\xca\xcfx\xfe\x87U[@'
p7089
tp7090
Rp7091
sg16
g33
ssI195
(dp7092
g3
S'CHFJPY'
p7093
sg5
g6
(g10
S'\x1c\xaf\n)\x0ev[@'
p7094
tp7095
Rp7096
sg16
g33
ssI198
(dp7097
g3
S'CHFJPY'
p7098
sg5
g6
(g10
S'"\xdf\x04\xee9m[@'
p7099
tp7100
Rp7101
sg16
g33
ssI200
(dp7102
g3
S'CHFJPY'
p7103
sg5
g6
(g10
S'\xa1v\xf7t\x10z[@'
p7104
tp7105
Rp7106
sg16
g33
ssI203
(dp7107
g3
S'CHFJPY'
p7108
sg5
g6
(g10
S'R\x8d\xe3$Aw[@'
p7109
tp7110
Rp7111
sg16
g33
ssI205
(dp7112
g3
S'CHFJPY'
p7113
sg5
g6
(g10
S'\x80H\xedm~\x9d[@'
p7114
tp7115
Rp7116
sg16
g17
ssI207
(dp7117
g3
S'CHFJPY'
p7118
sg5
g6
(g10
S'\x85x\xe1\x81\xfa\x9d[@'
p7119
tp7120
Rp7121
sg16
g17
ssI210
(dp7122
g3
S'CHFJPY'
p7123
sg5
g6
(g10
S')\xfc6wao[@'
p7124
tp7125
Rp7126
sg16
g17
ssI212
(dp7127
g3
S'CHFJPY'
p7128
sg5
g6
(g10
S'\xb4-Gr\xaf/[@'
p7129
tp7130
Rp7131
sg16
g17
ssI216
(dp7132
g3
S'CHFJPY'
p7133
sg5
g6
(g10
S' \x04\x96\xed\xb1\x13[@'
p7134
tp7135
Rp7136
sg16
g17
ssI217
(dp7137
g3
S'CHFJPY'
p7138
sg5
g6
(g10
S"\xe8\x14t\x98\xdd'[@"
p7139
tp7140
Rp7141
sg16
g33
ssI218
(dp7142
g3
S'CHFJPY'
p7143
sg5
g6
(g10
S'6\x99\x11CU<[@'
p7144
tp7145
Rp7146
sg16
g17
ssI219
(dp7147
g3
S'CHFJPY'
p7148
sg5
g6
(g10
S'\xd7C\xeb\x88A/[@'
p7149
tp7150
Rp7151
sg16
g17
ssI220
(dp7152
g3
S'CHFJPY'
p7153
sg5
g6
(g10
S'\xf7\x1b\xc3\x9a:\x08[@'
p7154
tp7155
Rp7156
sg16
g17
ssI221
(dp7157
g3
S'CHFJPY'
p7158
sg5
g6
(g10
S'I \x12-\xe9\xefZ@'
p7159
tp7160
Rp7161
sg16
g17
ssI224
(dp7162
g3
S'CHFJPY'
p7163
sg5
g6
(g10
S'\xfc1\xff)T\xe1Z@'
p7164
tp7165
Rp7166
sg16
g17
ssI227
(dp7167
g3
S'CHFJPY'
p7168
sg5
g6
(g10
S'\x84\xc0|4\x05\x89Z@'
p7169
tp7170
Rp7171
sg16
g33
ssI229
(dp7172
g3
S'CHFJPY'
p7173
sg5
g6
(g10
S'\xb4\xe8\xad\x95\xdd\xb3Z@'
p7174
tp7175
Rp7176
sg16
g33
ssI234
(dp7177
g3
S'CHFJPY'
p7178
sg5
g6
(g10
S'\xb52\x1e\x90\xfe\xe4Z@'
p7179
tp7180
Rp7181
sg16
g17
ssI235
(dp7182
g3
S'CHFJPY'
p7183
sg5
g6
(g10
S's\x92\x11\xb3\xde\xc6Z@'
p7184
tp7185
Rp7186
sg16
g17
ssI239
(dp7187
g3
S'CHFJPY'
p7188
sg5
g6
(g10
S'\x84bQ\xc2\x17mZ@'
p7189
tp7190
Rp7191
sg16
g17
ssI241
(dp7192
g3
S'CHFJPY'
p7193
sg5
g6
(g10
S'\xf2.\x8e\xee#zZ@'
p7194
tp7195
Rp7196
sg16
g33
ssI242
(dp7197
g3
S'CHFJPY'
p7198
sg5
g6
(g10
S'\xb46V\xac1zZ@'
p7199
tp7200
Rp7201
sg16
g17
ssI246
(dp7202
g3
S'CHFJPY'
p7203
sg5
g6
(g10
S'\xaa\xee\xcd\xfaR\x82Z@'
p7204
tp7205
Rp7206
sg16
g33
ssI247
(dp7207
g3
S'CHFJPY'
p7208
sg5
g6
(g10
S'XY\xe2\x93-tZ@'
p7209
tp7210
Rp7211
sg16
g33
ssI250
(dp7212
g3
S'CHFJPY'
p7213
sg5
g6
(g10
S'\xcc\xfd\x82\xb0\xd0mZ@'
p7214
tp7215
Rp7216
sg16
g33
ssI251
(dp7217
g3
S'CHFJPY'
p7218
sg5
g6
(g10
S'\xeb\xd4\x01\x81\xa2\x98Z@'
p7219
tp7220
Rp7221
sg16
g33
ssI252
(dp7222
g3
S'CHFJPY'
p7223
sg5
g6
(g10
S'\xbd\xa9\xfe\xcf\x9a\x94Z@'
p7224
tp7225
Rp7226
sg16
g17
ssI254
(dp7227
g3
S'CHFJPY'
p7228
sg5
g6
(g10
S'\x7f\xb4\xfa\xae\x13\xa4Z@'
p7229
tp7230
Rp7231
sg16
g17
ssI255
(dp7232
g3
S'CHFJPY'
p7233
sg5
g6
(g10
S';\x9a8\xcby\xd5Z@'
p7234
tp7235
Rp7236
sg16
g17
ssI257
(dp7237
g3
S'CHFJPY'
p7238
sg5
g6
(g10
S'\xb3\xab\xd0\x9f\x8d\x92Z@'
p7239
tp7240
Rp7241
sg16
g17
ssI258
(dp7242
g3
S'CHFJPY'
p7243
sg5
g6
(g10
S'\x01\x9aH[UTZ@'
p7244
tp7245
Rp7246
sg16
g33
ssI261
(dp7247
g3
S'CHFJPY'
p7248
sg5
g6
(g10
S'a\x02\x9c{,jZ@'
p7249
tp7250
Rp7251
sg16
g17
ssI263
(dp7252
g3
S'CHFJPY'
p7253
sg5
g6
(g10
S'\x1a\xce\x0c\x99_mZ@'
p7254
tp7255
Rp7256
sg16
g17
ssI264
(dp7257
g3
S'CHFJPY'
p7258
sg5
g6
(g10
S')#f\xaa\x8e:Z@'
p7259
tp7260
Rp7261
sg16
g33
ssI265
(dp7262
g3
S'CHFJPY'
p7263
sg5
g6
(g10
S'\xe1I\x1aC\x82>Z@'
p7264
tp7265
Rp7266
sg16
g33
ssI266
(dp7267
g3
S'CHFJPY'
p7268
sg5
g6
(g10
S'\xff\xa7\xd0JeEZ@'
p7269
tp7270
Rp7271
sg16
g17
ssI267
(dp7272
g3
S'CHFJPY'
p7273
sg5
g6
(g10
S'\x89t\xa8CueZ@'
p7274
tp7275
Rp7276
sg16
g17
ssI270
(dp7277
g3
S'CHFJPY'
p7278
sg5
g6
(g10
S'\xbd\xda(s\xa4KZ@'
p7279
tp7280
Rp7281
sg16
g33
ssI272
(dp7282
g3
S'CHFJPY'
p7283
sg5
g6
(g10
S'\xba\x93\x149\xa14Z@'
p7284
tp7285
Rp7286
sg16
g33
ssI276
(dp7287
g3
S'CHFJPY'
p7288
sg5
g6
(g10
S"5\x10'\x88?\x87Z@"
p7289
tp7290
Rp7291
sg16
g17
ssI277
(dp7292
g3
S'CHFJPY'
p7293
sg5
g6
(g10
S'>\x91\x8byP\x94Z@'
p7294
tp7295
Rp7296
sg16
g33
ssI278
(dp7297
g3
S'CHFJPY'
p7298
sg5
g6
(g10
S'\x0bv\x97\x8cs\xb9Z@'
p7299
tp7300
Rp7301
sg16
g33
ssI280
(dp7302
g3
S'CHFJPY'
p7303
sg5
g6
(g10
S'\n\x9ao\xfa\x89\xaaZ@'
p7304
tp7305
Rp7306
sg16
g33
ssI285
(dp7307
g3
S'CHFJPY'
p7308
sg5
g6
(g10
S'D}I\xfa|\xd6Z@'
p7309
tp7310
Rp7311
sg16
g17
ssI287
(dp7312
g3
S'CHFJPY'
p7313
sg5
g6
(g10
S'5\n\xf1\x90b\\Z@'
p7314
tp7315
Rp7316
sg16
g17
ssI288
(dp7317
g3
S'CHFJPY'
p7318
sg5
g6
(g10
S'\x83\xb8\xcd\x12\xc4$Z@'
p7319
tp7320
Rp7321
sg16
g17
ssI289
(dp7322
g3
S'CHFJPY'
p7323
sg5
g6
(g10
S'\xbf\xb2w\xba\x00!Z@'
p7324
tp7325
Rp7326
sg16
g33
ssI292
(dp7327
g3
S'CHFJPY'
p7328
sg5
g6
(g10
S"\x02#\xf7[\xe7'Z@"
p7329
tp7330
Rp7331
sg16
g33
ssI294
(dp7332
g3
S'CHFJPY'
p7333
sg5
g6
(g10
S'%\xb5\x87+\x0f\x8cZ@'
p7334
tp7335
Rp7336
sg16
g33
ssI295
(dp7337
g3
S'CHFJPY'
p7338
sg5
g6
(g10
S'\xd8\xfa\xd9\xf6\x8c\x9eZ@'
p7339
tp7340
Rp7341
sg16
g33
ssI303
(dp7342
g3
S'CHFJPY'
p7343
sg5
g6
(g10
S'lNI\xed\xcc\xcaZ@'
p7344
tp7345
Rp7346
sg16
g17
ssI304
(dp7347
g3
S'CHFJPY'
p7348
sg5
g6
(g10
S'\x82\xb6J\x88\xd5\xcdZ@'
p7349
tp7350
Rp7351
sg16
g17
ssI305
(dp7352
g3
S'CHFJPY'
p7353
sg5
g6
(g10
S'\x1b\x14x\x7f\xa4\xadZ@'
p7354
tp7355
Rp7356
sg16
g33
ssI307
(dp7357
g3
S'CHFJPY'
p7358
sg5
g6
(g10
S'\x06\x9ez\x1d\x98\xb8Z@'
p7359
tp7360
Rp7361
sg16
g33
ssI309
(dp7362
g3
S'CHFJPY'
p7363
sg5
g6
(g10
S'\xd41\xe8\xf7"\xc0Z@'
p7364
tp7365
Rp7366
sg16
g17
ssI311
(dp7367
g3
S'CHFJPY'
p7368
sg5
g6
(g10
S'\xd35\xf9\x16T\xccZ@'
p7369
tp7370
Rp7371
sg16
g17
ssI314
(dp7372
g3
S'CHFJPY'
p7373
sg5
g6
(g10
S'\x8c\x94\x8f\xce\xb6\xb2Z@'
p7374
tp7375
Rp7376
sg16
g33
ssI318
(dp7377
g3
S'CHFJPY'
p7378
sg5
g6
(g10
S'\x8d<\xc9d\x9f\xd9Z@'
p7379
tp7380
Rp7381
sg16
g17
ssI319
(dp7382
g3
S'CHFJPY'
p7383
sg5
g6
(g10
S'\xfe\xcb\x0c\xc0\xec\xebZ@'
p7384
tp7385
Rp7386
sg16
g17
ssI320
(dp7387
g3
S'CHFJPY'
p7388
sg5
g6
(g10
S'\x05`(\xc7\xbc\xc9Z@'
p7389
tp7390
Rp7391
sg16
g17
ssI323
(dp7392
g3
S'CHFJPY'
p7393
sg5
g6
(g10
S'\xf93\xb0\x08\xdfHZ@'
p7394
tp7395
Rp7396
sg16
g17
ssI324
(dp7397
g3
S'CHFJPY'
p7398
sg5
g6
(g10
S'\xdb\xfe9\rb/Z@'
p7399
tp7400
Rp7401
sg16
g17
ssI325
(dp7402
g3
S'CHFJPY'
p7403
sg5
g6
(g10
S'\x1c>\xb1\xeb\t%Z@'
p7404
tp7405
Rp7406
sg16
g17
ssI330
(dp7407
g3
S'CHFJPY'
p7408
sg5
g6
(g10
S'Jd\x90\xb2\x17\xd8Y@'
p7409
tp7410
Rp7411
sg16
g33
ssI331
(dp7412
g3
S'CHFJPY'
p7413
sg5
g6
(g10
S'a\x9bR\x926\xe1Y@'
p7414
tp7415
Rp7416
sg16
g33
ssI333
(dp7417
g3
S'CHFJPY'
p7418
sg5
g6
(g10
S'\x8d`\xe6\xa5#\x02Z@'
p7419
tp7420
Rp7421
sg16
g33
ssI335
(dp7422
g3
S'CHFJPY'
p7423
sg5
g6
(g10
S'\xe1$R!\xee\x08Z@'
p7424
tp7425
Rp7426
sg16
g33
ssI337
(dp7427
g3
S'CHFJPY'
p7428
sg5
g6
(g10
S'\xe9\xf0B\xe9^[Z@'
p7429
tp7430
Rp7431
sg16
g17
ssI341
(dp7432
g3
S'CHFJPY'
p7433
sg5
g6
(g10
S'\xbd\xa8.\xb0\xcf\xf1Y@'
p7434
tp7435
Rp7436
sg16
g17
ssI343
(dp7437
g3
S'CHFJPY'
p7438
sg5
g6
(g10
S'\xff\xbd\x87\x8e \x06Z@'
p7439
tp7440
Rp7441
sg16
g17
ssI344
(dp7442
g3
S'CHFJPY'
p7443
sg5
g6
(g10
S'\xcf\xd99\x87(\xa5Y@'
p7444
tp7445
Rp7446
sg16
g33
ssI347
(dp7447
g3
S'CHFJPY'
p7448
sg5
g6
(g10
S'zY4\xe8=oY@'
p7449
tp7450
Rp7451
sg16
g33
ssI348
(dp7452
g3
S'CHFJPY'
p7453
sg5
g6
(g10
S'uo\xf7v\xb8\x8fY@'
p7454
tp7455
Rp7456
sg16
g17
ssI351
(dp7457
g3
S'CHFJPY'
p7458
sg5
g6
(g10
S'\xf9\xbe\xc4u\xf1\xb8Y@'
p7459
tp7460
Rp7461
sg16
g33
ssI352
(dp7462
g3
S'CHFJPY'
p7463
sg5
g6
(g10
S'\xd91H\xc1\xf8\xa6Y@'
p7464
tp7465
Rp7466
sg16
g33
ssI354
(dp7467
g3
S'CHFJPY'
p7468
sg5
g6
(g10
S'\x16\xfa\xcd\xd3\x04\xb8Y@'
p7469
tp7470
Rp7471
sg16
g33
ssI358
(dp7472
g3
S'CHFJPY'
p7473
sg5
g6
(g10
S'\x00\n\xe8[\x9e\xc5Z@'
p7474
tp7475
Rp7476
sg16
g33
ssI359
(dp7477
g3
S'CHFJPY'
p7478
sg5
g6
(g10
S'\x12\xdb\xd2\x04\xf9\xbfZ@'
p7479
tp7480
Rp7481
sg16
g33
ssI360
(dp7482
g3
S'CHFJPY'
p7483
sg5
g6
(g10
S'\x82\xfd\xa4\xdf*\xc5Z@'
p7484
tp7485
Rp7486
sg16
g33
ssI363
(dp7487
g3
S'CHFJPY'
p7488
sg5
g6
(g10
S'A\xf8An\xd0([@'
p7489
tp7490
Rp7491
sg16
g17
ssI364
(dp7492
g3
S'CHFJPY'
p7493
sg5
g6
(g10
S'\x8bD4\xff\xefD[@'
p7494
tp7495
Rp7496
sg16
g17
ssI366
(dp7497
g3
S'CHFJPY'
p7498
sg5
g6
(g10
S'\x8eV\xd6\x01I\x07[@'
p7499
tp7500
Rp7501
sg16
g33
ssI369
(dp7502
g3
S'CHFJPY'
p7503
sg5
g6
(g10
S'T\x98[\xc5\xaf\x14[@'
p7504
tp7505
Rp7506
sg16
g33
ssI370
(dp7507
g3
S'CHFJPY'
p7508
sg5
g6
(g10
S'D\xd4\x94\x0b8\x16[@'
p7509
tp7510
Rp7511
sg16
g33
ssI371
(dp7512
g3
S'CHFJPY'
p7513
sg5
g6
(g10
S"j'\xef\xfb\x15)[@"
p7514
tp7515
Rp7516
sg16
g33
ssI373
(dp7517
g3
S'CHFJPY'
p7518
sg5
g6
(g10
S'\xc0\xa6\xf1\x9ch@[@'
p7519
tp7520
Rp7521
sg16
g33
ssI374
(dp7522
g3
S'CHFJPY'
p7523
sg5
g6
(g10
S'\xfe\xc4\xe6^t[[@'
p7524
tp7525
Rp7526
sg16
g33
ssI375
(dp7527
g3
S'CHFJPY'
p7528
sg5
g6
(g10
S'\xa4\xd3"]W\xa1[@'
p7529
tp7530
Rp7531
sg16
g33
ssI376
(dp7532
g3
S'CHFJPY'
p7533
sg5
g6
(g10
S'as\xab\xeb>\x96[@'
p7534
tp7535
Rp7536
sg16
g17
ssI379
(dp7537
g3
S'CHFJPY'
p7538
sg5
g6
(g10
S'\xaa\x12\xa7j\xf3\xb9[@'
p7539
tp7540
Rp7541
sg16
g17
ssI381
(dp7542
g3
S'CHFJPY'
p7543
sg5
g6
(g10
S'7\x19\x86\xa6m\x84[@'
p7544
tp7545
Rp7546
sg16
g33
ssI382
(dp7547
g3
S'CHFJPY'
p7548
sg5
g6
(g10
S'\xa0\xd2\xacv\x97f[@'
p7549
tp7550
Rp7551
sg16
g33
ssI383
(dp7552
g3
S'CHFJPY'
p7553
sg5
g6
(g10
S'z6D\xcbG\xb0[@'
p7554
tp7555
Rp7556
sg16
g17
ssI385
(dp7557
g3
S'CHFJPY'
p7558
sg5
g6
(g10
S'\xa2b2\x0c\xae\xc1[@'
p7559
tp7560
Rp7561
sg16
g33
ssI386
(dp7562
g3
S'CHFJPY'
p7563
sg5
g6
(g10
S'\xe2\xc4\x96\x942\xf3[@'
p7564
tp7565
Rp7566
sg16
g33
ssI387
(dp7567
g3
S'CHFJPY'
p7568
sg5
g6
(g10
S'XY\x93\x1f\x95\xea[@'
p7569
tp7570
Rp7571
sg16
g33
ssI388
(dp7572
g3
S'CHFJPY'
p7573
sg5
g6
(g10
S'\xc3\x8b\x00\x14\xdf2\\@'
p7574
tp7575
Rp7576
sg16
g17
ssI389
(dp7577
g3
S'CHFJPY'
p7578
sg5
g6
(g10
S'\xcdK\xc5\x02\x9dD\\@'
p7579
tp7580
Rp7581
sg16
g17
ssI391
(dp7582
g3
S'CHFJPY'
p7583
sg5
g6
(g10
S'\xde\r\x05\xbb\xb0&\\@'
p7584
tp7585
Rp7586
sg16
g17
ssI392
(dp7587
g3
S'CHFJPY'
p7588
sg5
g6
(g10
S'<w:\xc8\x8c\x14\\@'
p7589
tp7590
Rp7591
sg16
g17
ssI396
(dp7592
g3
S'CHFJPY'
p7593
sg5
g6
(g10
S'\xaf\xee\x9b\x0e\xf7\xf1[@'
p7594
tp7595
Rp7596
sg16
g17
ssI401
(dp7597
g3
S'CHFJPY'
p7598
sg5
g6
(g10
S'P]\x13A\x82\xb7[@'
p7599
tp7600
Rp7601
sg16
g33
ssI402
(dp7602
g3
S'CHFJPY'
p7603
sg5
g6
(g10
S'#\xff\xb3\xbc\x93\xaa[@'
p7604
tp7605
Rp7606
sg16
g33
ssI404
(dp7607
g3
S'CHFJPY'
p7608
sg5
g6
(g10
S'e\x1f\xdb7\x8f\xa9[@'
p7609
tp7610
Rp7611
sg16
g33
ssI406
(dp7612
g3
S'CHFJPY'
p7613
sg5
g6
(g10
S're\x05\xbe\x13\xd0[@'
p7614
tp7615
Rp7616
sg16
g17
ssI410
(dp7617
g3
S'CHFJPY'
p7618
sg5
g6
(g10
S'z\xc8,\xbe\xb7\xc7[@'
p7619
tp7620
Rp7621
sg16
g17
ssI411
(dp7622
g3
S'CHFJPY'
p7623
sg5
g6
(g10
S'\x96g%\x18\xe7\xc3[@'
p7624
tp7625
Rp7626
sg16
g17
ssI412
(dp7627
g3
S'CHFJPY'
p7628
sg5
g6
(g10
S'\x7fj\xadw^\xc5[@'
p7629
tp7630
Rp7631
sg16
g33
ssI413
(dp7632
g3
S'CHFJPY'
p7633
sg5
g6
(g10
S'\xe2Cs\x07\xfc\xb9[@'
p7634
tp7635
Rp7636
sg16
g17
ssI414
(dp7637
g3
S'CHFJPY'
p7638
sg5
g6
(g10
S'\xf1\x18#\xa2\x8d\x90[@'
p7639
tp7640
Rp7641
sg16
g17
ssI417
(dp7642
g3
S'CHFJPY'
p7643
sg5
g6
(g10
S'\xf3"d"\xe3f[@'
p7644
tp7645
Rp7646
sg16
g33
ssI420
(dp7647
g3
S'CHFJPY'
p7648
sg5
g6
(g10
S'|q7C\x82c[@'
p7649
tp7650
Rp7651
sg16
g33
ssI424
(dp7652
g3
S'CHFJPY'
p7653
sg5
g6
(g10
S'\x9f\x01\x01S\x99\x88[@'
p7654
tp7655
Rp7656
sg16
g17
ssI429
(dp7657
g3
S'CHFJPY'
p7658
sg5
g6
(g10
S'fV\xbcPt\xf8Z@'
p7659
tp7660
Rp7661
sg16
g17
ssI430
(dp7662
g3
S'CHFJPY'
p7663
sg5
g6
(g10
S'\xe2a\xba\x8a\xaa\xc3Z@'
p7664
tp7665
Rp7666
sg16
g17
ssI432
(dp7667
g3
S'CHFJPY'
p7668
sg5
g6
(g10
S'v\xf7\xfcS\xa6\xc1Z@'
p7669
tp7670
Rp7671
sg16
g17
ssI433
(dp7672
g3
S'CHFJPY'
p7673
sg5
g6
(g10
S'\x94\xc2t\xb7\xaa\x93Z@'
p7674
tp7675
Rp7676
sg16
g17
ssI434
(dp7677
g3
S'CHFJPY'
p7678
sg5
g6
(g10
S'p\xff\tU\x0f\x8fZ@'
p7679
tp7680
Rp7681
sg16
g33
ssI435
(dp7682
g3
S'CHFJPY'
p7683
sg5
g6
(g10
S'\xac\xa3\xb0y\x03[Z@'
p7684
tp7685
Rp7686
sg16
g33
ssI436
(dp7687
g3
S'CHFJPY'
p7688
sg5
g6
(g10
S'\xd0\xe5\xc4\x82\xaakZ@'
p7689
tp7690
Rp7691
sg16
g33
ssI439
(dp7692
g3
S'CHFJPY'
p7693
sg5
g6
(g10
S'C\x02\xea\x9b0\xd9Z@'
p7694
tp7695
Rp7696
sg16
g33
ssI440
(dp7697
g3
S'CHFJPY'
p7698
sg5
g6
(g10
S'\x01\x9e}\x87\xd5\xb8Z@'
p7699
tp7700
Rp7701
sg16
g33
ssI444
(dp7702
g3
S'CHFJPY'
p7703
sg5
g6
(g10
S"aD\xb9u'\xf7Z@"
p7704
tp7705
Rp7706
sg16
g17
ssI446
(dp7707
g3
S'CHFJPY'
p7708
sg5
g6
(g10
S'\xd3\xa3uP\x1e\xdaZ@'
p7709
tp7710
Rp7711
sg16
g33
ssI448
(dp7712
g3
S'CHFJPY'
p7713
sg5
g6
(g10
S'+;!\xb3\x8c\xbbZ@'
p7714
tp7715
Rp7716
sg16
g33
ssI455
(dp7717
g3
S'CHFJPY'
p7718
sg5
g6
(g10
S'\x9b\xdd\x91\xe5v\x11[@'
p7719
tp7720
Rp7721
sg16
g33
ssI459
(dp7722
g3
S'CHFJPY'
p7723
sg5
g6
(g10
S'\xaca\x01r\xa0t[@'
p7724
tp7725
Rp7726
sg16
g33
ssI460
(dp7727
g3
S'CHFJPY'
p7728
sg5
g6
(g10
S'\xbaA\x0b\xc7\xcb\x9f[@'
p7729
tp7730
Rp7731
sg16
g17
ssI461
(dp7732
g3
S'CHFJPY'
p7733
sg5
g6
(g10
S'\xeab\xdb\xfb\xc9\xb5[@'
p7734
tp7735
Rp7736
sg16
g17
ssI462
(dp7737
g3
S'CHFJPY'
p7738
sg5
g6
(g10
S'\x02rJ\x19x\x8d[@'
p7739
tp7740
Rp7741
sg16
g33
ssI463
(dp7742
g3
S'CHFJPY'
p7743
sg5
g6
(g10
S'`h\xf8\xdbY\x99[@'
p7744
tp7745
Rp7746
sg16
g33
ssI464
(dp7747
g3
S'CHFJPY'
p7748
sg5
g6
(g10
S'\x9c\xaa\xbb\xd8O\x9f[@'
p7749
tp7750
Rp7751
sg16
g33
ssI468
(dp7752
g3
S'CHFJPY'
p7753
sg5
g6
(g10
S'[\xd7\xa7\x98\x1f\xbb[@'
p7754
tp7755
Rp7756
sg16
g33
ssI470
(dp7757
g3
S'CHFJPY'
p7758
sg5
g6
(g10
S'iP\xb02\xf3\x06\\@'
p7759
tp7760
Rp7761
sg16
g33
ssI473
(dp7762
g3
S'CHFJPY'
p7763
sg5
g6
(g10
S'\xa6\x84\xb3W\x04c\\@'
p7764
tp7765
Rp7766
sg16
g17
ssI477
(dp7767
g3
S'CHFJPY'
p7768
sg5
g6
(g10
S'\xa0\xfbw\x04\xeaC\\@'
p7769
tp7770
Rp7771
sg16
g17
ssI478
(dp7772
g3
S'CHFJPY'
p7773
sg5
g6
(g10
S'\x96Y)\xb1]n\\@'
p7774
tp7775
Rp7776
sg16
g33
ssI479
(dp7777
g3
S'CHFJPY'
p7778
sg5
g6
(g10
S'#G\x9f\xbb\xe5\x7f\\@'
p7779
tp7780
Rp7781
sg16
g33
ssI480
(dp7782
g3
S'CHFJPY'
p7783
sg5
g6
(g10
S'r\xebn\n\xa6a\\@'
p7784
tp7785
Rp7786
sg16
g17
ssI482
(dp7787
g3
S'CHFJPY'
p7788
sg5
g6
(g10
S'\x8b6\xe7]\xca=\\@'
p7789
tp7790
Rp7791
sg16
g33
ssI483
(dp7792
g3
S'CHFJPY'
p7793
sg5
g6
(g10
S'\x9aJ\xd5\xf2|q\\@'
p7794
tp7795
Rp7796
sg16
g17
ssI484
(dp7797
g3
S'CHFJPY'
p7798
sg5
g6
(g10
S'7\xab\x19q\xe0\x81\\@'
p7799
tp7800
Rp7801
sg16
g17
ssI487
(dp7802
g3
S'CHFJPY'
p7803
sg5
g6
(g10
S'n5\x82\x1ciT\\@'
p7804
tp7805
Rp7806
sg16
g33
ssI488
(dp7807
g3
S'CHFJPY'
p7808
sg5
g6
(g10
S'\xeb\xc2\x90\xc2\x83X\\@'
p7809
tp7810
Rp7811
sg16
g33
ssI491
(dp7812
g3
S'CHFJPY'
p7813
sg5
g6
(g10
S'\x7f\xdb\xcea^*\\@'
p7814
tp7815
Rp7816
sg16
g33
ssI492
(dp7817
g3
S'CHFJPY'
p7818
sg5
g6
(g10
S'K\xb1-\x84mx\\@'
p7819
tp7820
Rp7821
sg16
g33
ssI496
(dp7822
g3
S'CHFJPY'
p7823
sg5
g6
(g10
S';\xf3\x15\x02\xa9\xbd\\@'
p7824
tp7825
Rp7826
sg16
g33
ssI498
(dp7827
g3
S'CHFJPY'
p7828
sg5
g6
(g10
S't\xa6\xc3\xc9\xeb\xba\\@'
p7829
tp7830
Rp7831
sg16
g33
ssI501
(dp7832
g3
S'CHFJPY'
p7833
sg5
g6
(g10
S'\xb7T\xad\xac\x11\xe9\\@'
p7834
tp7835
Rp7836
sg16
g17
ssI503
(dp7837
g3
S'CHFJPY'
p7838
sg5
g6
(g10
S'9\xef\x13w:\xf5\\@'
p7839
tp7840
Rp7841
sg16
g33
ssI504
(dp7842
g3
S'CHFJPY'
p7843
sg5
g6
(g10
S'.\xda\x87\x87y\xe2\\@'
p7844
tp7845
Rp7846
sg16
g33
ssI508
(dp7847
g3
S'CHFJPY'
p7848
sg5
g6
(g10
S'\x91\x9d\x8c\xf1\x18\xfd\\@'
p7849
tp7850
Rp7851
sg16
g33
ssI509
(dp7852
g3
S'CHFJPY'
p7853
sg5
g6
(g10
S';\x07\x98\x83\xfb\xf5\\@'
p7854
tp7855
Rp7856
sg16
g33
ssI510
(dp7857
g3
S'CHFJPY'
p7858
sg5
g6
(g10
S'\x9f7\x88\x8b\xdf\xfe\\@'
p7859
tp7860
Rp7861
sg16
g17
ssI513
(dp7862
g3
S'CHFJPY'
p7863
sg5
g6
(g10
S'\xe4\xa7\xad\x9e\xf3&]@'
p7864
tp7865
Rp7866
sg16
g17
ssI519
(dp7867
g3
S'CHFJPY'
p7868
sg5
g6
(g10
S'\x8d3\x90`Q\xc6\\@'
p7869
tp7870
Rp7871
sg16
g33
ssI521
(dp7872
g3
S'CHFJPY'
p7873
sg5
g6
(g10
S'\xe8\xb6b\xae\xf7\xed\\@'
p7874
tp7875
Rp7876
sg16
g33
ssI525
(dp7877
g3
S'CHFJPY'
p7878
sg5
g6
(g10
S'\x9f9\x13J:?]@'
p7879
tp7880
Rp7881
sg16
g33
ssI528
(dp7882
g3
S'CHFJPY'
p7883
sg5
g6
(g10
S'\x10\x87N\x1c\xbfB]@'
p7884
tp7885
Rp7886
sg16
g17
ssI529
(dp7887
g3
S'CHFJPY'
p7888
sg5
g6
(g10
S'Hz=\x04V[]@'
p7889
tp7890
Rp7891
sg16
g17
ssI531
(dp7892
g3
S'CHFJPY'
p7893
sg5
g6
(g10
S'{\xb9V\xb6\r\x7f]@'
p7894
tp7895
Rp7896
sg16
g17
ssI533
(dp7897
g3
S'CHFJPY'
p7898
sg5
g6
(g10
S'\x9c\xda\xecQ2>]@'
p7899
tp7900
Rp7901
sg16
g33
ssI538
(dp7902
g3
S'CHFJPY'
p7903
sg5
g6
(g10
S'\xa4\xff`\xdcck]@'
p7904
tp7905
Rp7906
sg16
g17
ssI539
(dp7907
g3
S'CHFJPY'
p7908
sg5
g6
(g10
S'\x00%\x16f\x92R]@'
p7909
tp7910
Rp7911
sg16
g33
ssI540
(dp7912
g3
S'CHFJPY'
p7913
sg5
g6
(g10
S'\x0fVwj\x81\\]@'
p7914
tp7915
Rp7916
sg16
g17
ssI542
(dp7917
g3
S'CHFJPY'
p7918
sg5
g6
(g10
S'\xeb\xfa\xc9?\xa5\x7f]@'
p7919
tp7920
Rp7921
sg16
g17
ssI544
(dp7922
g3
S'CHFJPY'
p7923
sg5
g6
(g10
S'x\x8a\xc4\xe2i\x8b]@'
p7924
tp7925
Rp7926
sg16
g17
ssI547
(dp7927
g3
S'CHFJPY'
p7928
sg5
g6
(g10
S'\xdf\x87\xd3\xc0\xb0\x14]@'
p7929
tp7930
Rp7931
sg16
g33
ssI549
(dp7932
g3
S'CHFJPY'
p7933
sg5
g6
(g10
S'\xc2c*\xac\xcb\x85]@'
p7934
tp7935
Rp7936
sg16
g33
ssI550
(dp7937
g3
S'CHFJPY'
p7938
sg5
g6
(g10
S'\xff\xf9K\xebq\xb9]@'
p7939
tp7940
Rp7941
sg16
g33
ssI551
(dp7942
g3
S'CHFJPY'
p7943
sg5
g6
(g10
S'\xaaA\xf8\xf1\xe1\xcd]@'
p7944
tp7945
Rp7946
sg16
g33
ssI552
(dp7947
g3
S'CHFJPY'
p7948
sg5
g6
(g10
S'0\xca\x00\x85"\xc0]@'
p7949
tp7950
Rp7951
sg16
g33
ssI553
(dp7952
g3
S'CHFJPY'
p7953
sg5
g6
(g10
S'\x9e\xd2\xd7\x16r\xc7]@'
p7954
tp7955
Rp7956
sg16
g17
ssI555
(dp7957
g3
S'CHFJPY'
p7958
sg5
g6
(g10
S'\xcd\xdfNk\xa0\xcf]@'
p7959
tp7960
Rp7961
sg16
g33
ssI556
(dp7962
g3
S'CHFJPY'
p7963
sg5
g6
(g10
S'Y\xf2\x96U\xa0\xd8]@'
p7964
tp7965
Rp7966
sg16
g33
ssI557
(dp7967
g3
S'CHFJPY'
p7968
sg5
g6
(g10
S']\xe5\x86\xecg\xe5]@'
p7969
tp7970
Rp7971
sg16
g33
ssI558
(dp7972
g3
S'CHFJPY'
p7973
sg5
g6
(g10
S'\xd8pa\x9f\\\x05^@'
p7974
tp7975
Rp7976
sg16
g33
ssI560
(dp7977
g3
S'CHFJPY'
p7978
sg5
g6
(g10
S'\x8dB\xa9\x82\x96!^@'
p7979
tp7980
Rp7981
sg16
g33
ssI563
(dp7982
g3
S'CHFJPY'
p7983
sg5
g6
(g10
S'\xc6\x1d\xcb\xb7i8^@'
p7984
tp7985
Rp7986
sg16
g17
ssI564
(dp7987
g3
S'CHFJPY'
p7988
sg5
g6
(g10
S'\xe4\xa3\n\xa6\x0e\xea]@'
p7989
tp7990
Rp7991
sg16
g17
ssI565
(dp7992
g3
S'CHFJPY'
p7993
sg5
g6
(g10
S'\xe4\x00\x80\x9f4)^@'
p7994
tp7995
Rp7996
sg16
g17
ssI567
(dp7997
g3
S'CHFJPY'
p7998
sg5
g6
(g10
S' \xddo\x8f\xe5\xe5]@'
p7999
tp8000
Rp8001
sg16
g17
ssI570
(dp8002
g3
S'CHFJPY'
p8003
sg5
g6
(g10
S'\xc2j\x98\xef\xef\xa6]@'
p8004
tp8005
Rp8006
sg16
g17
ssI571
(dp8007
g3
S'CHFJPY'
p8008
sg5
g6
(g10
S'\x1ekgx*\x9d]@'
p8009
tp8010
Rp8011
sg16
g33
ssI574
(dp8012
g3
S'CHFJPY'
p8013
sg5
g6
(g10
S'\x0e@\xeff\xd1\x9e]@'
p8014
tp8015
Rp8016
sg16
g33
ssI576
(dp8017
g3
S'CHFJPY'
p8018
sg5
g6
(g10
S"-\xa9'\xb5\xd4\xa8]@"
p8019
tp8020
Rp8021
sg16
g33
ssI577
(dp8022
g3
S'CHFJPY'
p8023
sg5
g6
(g10
S'5\xed\xc6\xa0\xe2\xbb]@'
p8024
tp8025
Rp8026
sg16
g33
ssI582
(dp8027
g3
S'CHFJPY'
p8028
sg5
g6
(g10
S'_\x92\x82S\xba\xe9]@'
p8029
tp8030
Rp8031
sg16
g17
ssI583
(dp8032
g3
S'CHFJPY'
p8033
sg5
g6
(g10
S'\x0c\xf8\xb7\xe0E\xe5]@'
p8034
tp8035
Rp8036
sg16
g17
ssI584
(dp8037
g3
S'CHFJPY'
p8038
sg5
g6
(g10
S'\xce\x1b\xb9\xc0\xf9\xb5]@'
p8039
tp8040
Rp8041
sg16
g33
ssI585
(dp8042
g3
S'CHFJPY'
p8043
sg5
g6
(g10
S'S\x7fc\x06\x88\xce]@'
p8044
tp8045
Rp8046
sg16
g17
ssI586
(dp8047
g3
S'CHFJPY'
p8048
sg5
g6
(g10
S'=w\x95u\xde\xb2]@'
p8049
tp8050
Rp8051
sg16
g17
ssI588
(dp8052
g3
S'CHFJPY'
p8053
sg5
g6
(g10
S'\xbf7\x12\xf2^\xab]@'
p8054
tp8055
Rp8056
sg16
g17
ssI591
(dp8057
g3
S'CHFJPY'
p8058
sg5
g6
(g10
S'\xba%\xb9\x9d3\x9d]@'
p8059
tp8060
Rp8061
sg16
g17
ssI592
(dp8062
g3
S'CHFJPY'
p8063
sg5
g6
(g10
S'\x98kcc\xbf\xaa]@'
p8064
tp8065
Rp8066
sg16
g17
ssI593
(dp8067
g3
S'CHFJPY'
p8068
sg5
g6
(g10
S'\xe4/!\x12L\x93]@'
p8069
tp8070
Rp8071
sg16
g33
ssI594
(dp8072
g3
S'CHFJPY'
p8073
sg5
g6
(g10
S'\xf5A\x06\xe2\xa7x]@'
p8074
tp8075
Rp8076
sg16
g33
ssI597
(dp8077
g3
S'CHFJPY'
p8078
sg5
g6
(g10
S'\x80\x94\x92\x15R\x93]@'
p8079
tp8080
Rp8081
sg16
g33
ssI598
(dp8082
g3
S'CHFJPY'
p8083
sg5
g6
(g10
S'\x0f\xc0\x01/[\xa8]@'
p8084
tp8085
Rp8086
sg16
g17
ssI600
(dp8087
g3
S'CHFJPY'
p8088
sg5
g6
(g10
S'[(n\xa9e\xa1]@'
p8089
tp8090
Rp8091
sg16
g17
ssI602
(dp8092
g3
S'CHFJPY'
p8093
sg5
g6
(g10
S'\x15C\x1f\xe1\xe1\xa5]@'
p8094
tp8095
Rp8096
sg16
g17
ssI603
(dp8097
g3
S'CHFJPY'
p8098
sg5
g6
(g10
S'\xbe)y\xc1\nO]@'
p8099
tp8100
Rp8101
sg16
g17
ssI604
(dp8102
g3
S'CHFJPY'
p8103
sg5
g6
(g10
S'+\xc5\xd1\xde\x85]]@'
p8104
tp8105
Rp8106
sg16
g17
ssI605
(dp8107
g3
S'CHFJPY'
p8108
sg5
g6
(g10
S'\xb8\xbeu=]9]@'
p8109
tp8110
Rp8111
sg16
g17
ssI607
(dp8112
g3
S'CHFJPY'
p8113
sg5
g6
(g10
S'0\xd9\x87\x9d\xe2+]@'
p8114
tp8115
Rp8116
sg16
g33
ssI608
(dp8117
g3
S'CHFJPY'
p8118
sg5
g6
(g10
S'\xca\x9b\xb4\xe3L\x08]@'
p8119
tp8120
Rp8121
sg16
g17
ssI610
(dp8122
g3
S'CHFJPY'
p8123
sg5
g6
(g10
S't\xee\x97\xe5\x19\xe3\\@'
p8124
tp8125
Rp8126
sg16
g33
ssI611
(dp8127
g3
S'CHFJPY'
p8128
sg5
g6
(g10
S'D\x18\x13\xb2.\xe3\\@'
p8129
tp8130
Rp8131
sg16
g33
ssI612
(dp8132
g3
S'CHFJPY'
p8133
sg5
g6
(g10
S'\xcb!g\xd6\x1b\xed\\@'
p8134
tp8135
Rp8136
sg16
g33
ssI613
(dp8137
g3
S'CHFJPY'
p8138
sg5
g6
(g10
S'\xee\xb5\xd9*\x05\xf3\\@'
p8139
tp8140
Rp8141
sg16
g33
ssI614
(dp8142
g3
S'CHFJPY'
p8143
sg5
g6
(g10
S'}\xe7\x1eQq]]@'
p8144
tp8145
Rp8146
sg16
g33
ssI616
(dp8147
g3
S'CHFJPY'
p8148
sg5
g6
(g10
S'\x90^\x1c\xbdP\xa3]@'
p8149
tp8150
Rp8151
sg16
g17
ssI618
(dp8152
g3
S'CHFJPY'
p8153
sg5
g6
(g10
S'\xff\x10/\xfag\xbc]@'
p8154
tp8155
Rp8156
sg16
g33
ssI620
(dp8157
g3
S'CHFJPY'
p8158
sg5
g6
(g10
S'\xd1\x8b\x0c$^\x8b]@'
p8159
tp8160
Rp8161
sg16
g33
ssI621
(dp8162
g3
S'CHFJPY'
p8163
sg5
g6
(g10
S'\x1f\xd8\x16\xa9p\x96]@'
p8164
tp8165
Rp8166
sg16
g33
ssI622
(dp8167
g3
S'CHFJPY'
p8168
sg5
g6
(g10
S'\x83\xe7p\xac\x1a\xc9]@'
p8169
tp8170
Rp8171
sg16
g33
ssI625
(dp8172
g3
S'CHFJPY'
p8173
sg5
g6
(g10
S'\r\x87c&\x8a\xee]@'
p8174
tp8175
Rp8176
sg16
g33
ssI626
(dp8177
g3
S'CHFJPY'
p8178
sg5
g6
(g10
S'R\x91\xeaWg%^@'
p8179
tp8180
Rp8181
sg16
g33
ssI627
(dp8182
g3
S'CHFJPY'
p8183
sg5
g6
(g10
S'h{\x8e\x94|A^@'
p8184
tp8185
Rp8186
sg16
g17
ssI629
(dp8187
g3
S'CHFJPY'
p8188
sg5
g6
(g10
S'9&Y\x16\x16C^@'
p8189
tp8190
Rp8191
sg16
g17
ssI632
(dp8192
g3
S'CHFJPY'
p8193
sg5
g6
(g10
S'q\xf92\xb5\xd0\x13^@'
p8194
tp8195
Rp8196
sg16
g17
ssI633
(dp8197
g3
S'CHFJPY'
p8198
sg5
g6
(g10
S"\x95\xdd'\\\x82\xd2]@"
p8199
tp8200
Rp8201
sg16
g17
ssI635
(dp8202
g3
S'CHFJPY'
p8203
sg5
g6
(g10
S'fa\x92p\xae\xce]@'
p8204
tp8205
Rp8206
sg16
g17
ssI637
(dp8207
g3
S'CHFJPY'
p8208
sg5
g6
(g10
S'\xbf\xe9\xe3\x93\xc1\xc0]@'
p8209
tp8210
Rp8211
sg16
g17
ssI638
(dp8212
g3
S'CHFJPY'
p8213
sg5
g6
(g10
S'\xdf\x12M\xa4.|]@'
p8214
tp8215
Rp8216
sg16
g17
ssI640
(dp8217
g3
S'CHFJPY'
p8218
sg5
g6
(g10
S'\x9e\xa3R\x839\x1a]@'
p8219
tp8220
Rp8221
sg16
g17
ssI641
(dp8222
g3
S'CHFJPY'
p8223
sg5
g6
(g10
S'W\xd3\xe3\xa0\x0e.]@'
p8224
tp8225
Rp8226
sg16
g17
ssI644
(dp8227
g3
S'CHFJPY'
p8228
sg5
g6
(g10
S'Y\xf7\xb8V\xefM]@'
p8229
tp8230
Rp8231
sg16
g17
ssI645
(dp8232
g3
S'CHFJPY'
p8233
sg5
g6
(g10
S'\r\x13\xc0#\xe1\x14]@'
p8234
tp8235
Rp8236
sg16
g33
ssI646
(dp8237
g3
S'CHFJPY'
p8238
sg5
g6
(g10
S'\xa5\x13\xf1\xf8\xd9\x1b]@'
p8239
tp8240
Rp8241
sg16
g33
ssI648
(dp8242
g3
S'CHFJPY'
p8243
sg5
g6
(g10
S'\xfa\xe6\xcb\xa7\x02`]@'
p8244
tp8245
Rp8246
sg16
g33
ssI649
(dp8247
g3
S'CHFJPY'
p8248
sg5
g6
(g10
S'\xf62\xd3\xa4*K]@'
p8249
tp8250
Rp8251
sg16
g33
ssI651
(dp8252
g3
S'CHFJPY'
p8253
sg5
g6
(g10
S"2\x84')\xccQ]@"
p8254
tp8255
Rp8256
sg16
g17
ssI652
(dp8257
g3
S'CHFJPY'
p8258
sg5
g6
(g10
S'u`\xe3\xe0Kr]@'
p8259
tp8260
Rp8261
sg16
g17
ssI653
(dp8262
g3
S'CHFJPY'
p8263
sg5
g6
(g10
S'\x89\xe8\x93d\xb3t]@'
p8264
tp8265
Rp8266
sg16
g17
ssI656
(dp8267
g3
S'CHFJPY'
p8268
sg5
g6
(g10
S'\xe6\x8e!}\xf9=]@'
p8269
tp8270
Rp8271
sg16
g17
ssI657
(dp8272
g3
S'CHFJPY'
p8273
sg5
g6
(g10
S'\xa9\x80\x0c\xb7\xc71]@'
p8274
tp8275
Rp8276
sg16
g33
ssI658
(dp8277
g3
S'CHFJPY'
p8278
sg5
g6
(g10
S'\x07\x9f\\I\x1eQ]@'
p8279
tp8280
Rp8281
sg16
g17
ssI659
(dp8282
g3
S'CHFJPY'
p8283
sg5
g6
(g10
S'^\xa5]\x12\x12L]@'
p8284
tp8285
Rp8286
sg16
g33
ssI660
(dp8287
g3
S'CHFJPY'
p8288
sg5
g6
(g10
S'\xb9m\x01/\x9a3]@'
p8289
tp8290
Rp8291
sg16
g33
ssI664
(dp8292
g3
S'CHFJPY'
p8293
sg5
g6
(g10
S'\xf3\x1b\xd6J\xb5l]@'
p8294
tp8295
Rp8296
sg16
g33
ssI667
(dp8297
g3
S'CHFJPY'
p8298
sg5
g6
(g10
S'\xd6\xb4\x93k\xa6\x1f^@'
p8299
tp8300
Rp8301
sg16
g17
ssI668
(dp8302
g3
S'CHFJPY'
p8303
sg5
g6
(g10
S'5\x1e\x82mH\xd5]@'
p8304
tp8305
Rp8306
sg16
g33
ssI669
(dp8307
g3
S'CHFJPY'
p8308
sg5
g6
(g10
S'9\x18\x08\xcf\x1d\xb1]@'
p8309
tp8310
Rp8311
sg16
g17
ssI670
(dp8312
g3
S'CHFJPY'
p8313
sg5
g6
(g10
S'\x93\xa2\x85N\x1b\xab]@'
p8314
tp8315
Rp8316
sg16
g17
ssI671
(dp8317
g3
S'CHFJPY'
p8318
sg5
g6
(g10
S'c\xfa\x83h\xb6\xb3]@'
p8319
tp8320
Rp8321
sg16
g17
ssI673
(dp8322
g3
S'CHFJPY'
p8323
sg5
g6
(g10
S"\x88\xf7'\x9d\x9d\\]@"
p8324
tp8325
Rp8326
sg16
g33
ssI675
(dp8327
g3
S'CHFJPY'
p8328
sg5
g6
(g10
S'\xf0\xfc\xe5\x82\x1bO]@'
p8329
tp8330
Rp8331
sg16
g17
ssI679
(dp8332
g3
S'CHFJPY'
p8333
sg5
g6
(g10
S'R\xb2F6\xd3\x92]@'
p8334
tp8335
Rp8336
sg16
g17
ssI686
(dp8337
g3
S'CHFJPY'
p8338
sg5
g6
(g10
S'\xfed}\xe3w8]@'
p8339
tp8340
Rp8341
sg16
g33
ssI687
(dp8342
g3
S'CHFJPY'
p8343
sg5
g6
(g10
S' \x90\xba`7U]@'
p8344
tp8345
Rp8346
sg16
g17
ssI689
(dp8347
g3
S'CHFJPY'
p8348
sg5
g6
(g10
S']h\xb5>\xd5\x00]@'
p8349
tp8350
Rp8351
sg16
g33
ssI693
(dp8352
g3
S'CHFJPY'
p8353
sg5
g6
(g10
S'6\xa2m\xe8\x95/]@'
p8354
tp8355
Rp8356
sg16
g33
ssI695
(dp8357
g3
S'CHFJPY'
p8358
sg5
g6
(g10
S'\xebF\x10\xe0\xc5-]@'
p8359
tp8360
Rp8361
sg16
g33
ssI700
(dp8362
g3
S'CHFJPY'
p8363
sg5
g6
(g10
S'\x0e\x86x\x15\x850]@'
p8364
tp8365
Rp8366
sg16
g17
ssI703
(dp8367
g3
S'CHFJPY'
p8368
sg5
g6
(g10
S'\x80\x01\xa3\x7f_\xf1\\@'
p8369
tp8370
Rp8371
sg16
g33
ssI705
(dp8372
g3
S'CHFJPY'
p8373
sg5
g6
(g10
S'\xacG\x130\xb8>]@'
p8374
tp8375
Rp8376
sg16
g33
ssI706
(dp8377
g3
S'CHFJPY'
p8378
sg5
g6
(g10
S'W\x90"\xd6\x91\x8d]@'
p8379
tp8380
Rp8381
sg16
g17
ssI708
(dp8382
g3
S'CHFJPY'
p8383
sg5
g6
(g10
S'\xd32\x1b~\x86Y]@'
p8384
tp8385
Rp8386
sg16
g17
ssI709
(dp8387
g3
S'CHFJPY'
p8388
sg5
g6
(g10
S'\x1f\x01\x85d\xb9I]@'
p8389
tp8390
Rp8391
sg16
g17
ssI710
(dp8392
g3
S'CHFJPY'
p8393
sg5
g6
(g10
S'\x18\xc7\x10\xa9&f]@'
p8394
tp8395
Rp8396
sg16
g17
ssI712
(dp8397
g3
S'CHFJPY'
p8398
sg5
g6
(g10
S'\x19^;\x90L\x15]@'
p8399
tp8400
Rp8401
sg16
g33
ssI716
(dp8402
g3
S'CHFJPY'
p8403
sg5
g6
(g10
S'}\xe3\xf5\x14\xcd\x1f]@'
p8404
tp8405
Rp8406
sg16
g17
ssI717
(dp8407
g3
S'CHFJPY'
p8408
sg5
g6
(g10
S'\x8b\x12\x8b(\xe2*]@'
p8409
tp8410
Rp8411
sg16
g17
ssI720
(dp8412
g3
S'CHFJPY'
p8413
sg5
g6
(g10
S'\xd9\xa6\xb9b\xe9\x10]@'
p8414
tp8415
Rp8416
sg16
g17
ssI723
(dp8417
g3
S'CHFJPY'
p8418
sg5
g6
(g10
S'\x05\r\xb5\x94\x8c\xde\\@'
p8419
tp8420
Rp8421
sg16
g33
ssI725
(dp8422
g3
S'CHFJPY'
p8423
sg5
g6
(g10
S'\x0c\xf1S\x02\xbf\t]@'
p8424
tp8425
Rp8426
sg16
g33
ssI726
(dp8427
g3
S'CHFJPY'
p8428
sg5
g6
(g10
S'\xabR\x07\xae\xe1(]@'
p8429
tp8430
Rp8431
sg16
g33
ssI727
(dp8432
g3
S'CHFJPY'
p8433
sg5
g6
(g10
S'\xe5Y\x03\x13[a]@'
p8434
tp8435
Rp8436
sg16
g17
ssI728
(dp8437
g3
S'CHFJPY'
p8438
sg5
g6
(g10
S'\x02C\xb4T\xbcc]@'
p8439
tp8440
Rp8441
sg16
g17
ssI729
(dp8442
g3
S'CHFJPY'
p8443
sg5
g6
(g10
S'e\x01\x98Ib@]@'
p8444
tp8445
Rp8446
sg16
g17
ssI730
(dp8447
g3
S'CHFJPY'
p8448
sg5
g6
(g10
S'\xc4(\xdaP}A]@'
p8449
tp8450
Rp8451
sg16
g17
ssI732
(dp8452
g3
S'CHFJPY'
p8453
sg5
g6
(g10
S'\xf0>\x1b:\xa0#]@'
p8454
tp8455
Rp8456
sg16
g17
ssI734
(dp8457
g3
S'CHFJPY'
p8458
sg5
g6
(g10
S'\xa2\xfe\x96\xb3\xb0\xd0\\@'
p8459
tp8460
Rp8461
sg16
g17
ssI737
(dp8462
g3
S'CHFJPY'
p8463
sg5
g6
(g10
S'\xc1\x1fNY\x12\xa5\\@'
p8464
tp8465
Rp8466
sg16
g17
ssI739
(dp8467
g3
S'CHFJPY'
p8468
sg5
g6
(g10
S'i2\xf0CAb\\@'
p8469
tp8470
Rp8471
sg16
g17
ssI742
(dp8472
g3
S'CHFJPY'
p8473
sg5
g6
(g10
S'\xdfH\xa2@\xf5Q\\@'
p8474
tp8475
Rp8476
sg16
g17
ssI744
(dp8477
g3
S'CHFJPY'
p8478
sg5
g6
(g10
S'\xfd\x8f\x94gUI\\@'
p8479
tp8480
Rp8481
sg16
g17
ssI747
(dp8482
g3
S'CHFJPY'
p8483
sg5
g6
(g10
S'\xcd\x17\xefT\x97*\\@'
p8484
tp8485
Rp8486
sg16
g33
ssI748
(dp8487
g3
S'CHFJPY'
p8488
sg5
g6
(g10
S'\xbab{\xd4)\x04\\@'
p8489
tp8490
Rp8491
sg16
g33
ssI749
(dp8492
g3
S'CHFJPY'
p8493
sg5
g6
(g10
S'^\x0e\xc5\xfes\xff[@'
p8494
tp8495
Rp8496
sg16
g33
ssI751
(dp8497
g3
S'CHFJPY'
p8498
sg5
g6
(g10
S'jR\xae\xacWC\\@'
p8499
tp8500
Rp8501
sg16
g33
ssI752
(dp8502
g3
S'CHFJPY'
p8503
sg5
g6
(g10
S'g\xc0\xa5\x98t>\\@'
p8504
tp8505
Rp8506
sg16
g33
ssI757
(dp8507
g3
S'CHFJPY'
p8508
sg5
g6
(g10
S'\xad~a\x97\x1bB\\@'
p8509
tp8510
Rp8511
sg16
g33
ssI758
(dp8512
g3
S'CHFJPY'
p8513
sg5
g6
(g10
S'\xbb\xb7\x81\x95\xe8+\\@'
p8514
tp8515
Rp8516
sg16
g33
ssI759
(dp8517
g3
S'CHFJPY'
p8518
sg5
g6
(g10
S'\x00\x99\xcf\xd8\xbe|\\@'
p8519
tp8520
Rp8521
sg16
g17
ssI760
(dp8522
g3
S'CHFJPY'
p8523
sg5
g6
(g10
S'A\x08\x18\x81\xcc\x87\\@'
p8524
tp8525
Rp8526
sg16
g17
ssI761
(dp8527
g3
S'CHFJPY'
p8528
sg5
g6
(g10
S'i\xbf\xa8\xe3L\x80\\@'
p8529
tp8530
Rp8531
sg16
g17
ssI763
(dp8532
g3
S'CHFJPY'
p8533
sg5
g6
(g10
S'm\xf2\xfb\x19\x9eQ\\@'
p8534
tp8535
Rp8536
sg16
g33
ssI764
(dp8537
g3
S'CHFJPY'
p8538
sg5
g6
(g10
S'\xc7\t\xb4\x7fa?\\@'
p8539
tp8540
Rp8541
sg16
g33
ssI766
(dp8542
g3
S'CHFJPY'
p8543
sg5
g6
(g10
S'\xc0\xad\x1f\xfb\xfc<\\@'
p8544
tp8545
Rp8546
sg16
g33
ssI768
(dp8547
g3
S'CHFJPY'
p8548
sg5
g6
(g10
S'\x1djN\ttl\\@'
p8549
tp8550
Rp8551
sg16
g33
ssI769
(dp8552
g3
S'CHFJPY'
p8553
sg5
g6
(g10
S'\x9c\t8\x0b\xfa\x91\\@'
p8554
tp8555
Rp8556
sg16
g33
ssI776
(dp8557
g3
S'CHFJPY'
p8558
sg5
g6
(g10
S'\x16\x98\xaaQ\xa4\x1a]@'
p8559
tp8560
Rp8561
sg16
g33
ssI777
(dp8562
g3
S'CHFJPY'
p8563
sg5
g6
(g10
S'\xb8\x82=3[\x02]@'
p8564
tp8565
Rp8566
sg16
g33
ssI779
(dp8567
g3
S'CHFJPY'
p8568
sg5
g6
(g10
S'-\xbe\xe6\xdc\xc9U]@'
p8569
tp8570
Rp8571
sg16
g33
ssI780
(dp8572
g3
S'CHFJPY'
p8573
sg5
g6
(g10
S'\xeb\xce\xd1\\zW]@'
p8574
tp8575
Rp8576
sg16
g33
ssI786
(dp8577
g3
S'CHFJPY'
p8578
sg5
g6
(g10
S'\xdb\xee\x89v(\x90]@'
p8579
tp8580
Rp8581
sg16
g17
ssI788
(dp8582
g3
S'CHFJPY'
p8583
sg5
g6
(g10
S'\xc4\xa9\xf8u\xf4Q]@'
p8584
tp8585
Rp8586
sg16
g17
ssI789
(dp8587
g3
S'CHFJPY'
p8588
sg5
g6
(g10
S'w/\xdd!\x0e@]@'
p8589
tp8590
Rp8591
sg16
g33
ssI791
(dp8592
g3
S'CHFJPY'
p8593
sg5
g6
(g10
S'\xba]\xeb{\xf89]@'
p8594
tp8595
Rp8596
sg16
g17
ssI796
(dp8597
g3
S'CHFJPY'
p8598
sg5
g6
(g10
S'\x07\xc3\xf6\xf6\x19\xdb\\@'
p8599
tp8600
Rp8601
sg16
g17
ssI797
(dp8602
g3
S'CHFJPY'
p8603
sg5
g6
(g10
S'\xdd\xcd\x8b\xb6\x07\xc4\\@'
p8604
tp8605
Rp8606
sg16
g17
ssI799
(dp8607
g3
S'CHFJPY'
p8608
sg5
g6
(g10
S'\x9e\xd3No\xa6\xa2\\@'
p8609
tp8610
Rp8611
sg16
g17
ssI800
(dp8612
g3
S'CHFJPY'
p8613
sg5
g6
(g10
S'\x04\x89\xa4\x10\xb4W\\@'
p8614
tp8615
Rp8616
sg16
g17
ssI801
(dp8617
g3
S'CHFJPY'
p8618
sg5
g6
(g10
S'\x94`\xdb5\xed@\\@'
p8619
tp8620
Rp8621
sg16
g17
ssI803
(dp8622
g3
S'CHFJPY'
p8623
sg5
g6
(g10
S'\x8c>Y[\xfa(\\@'
p8624
tp8625
Rp8626
sg16
g17
ssI804
(dp8627
g3
S'CHFJPY'
p8628
sg5
g6
(g10
S'\xef\x0e\xb2\x17\x1f\x06\\@'
p8629
tp8630
Rp8631
sg16
g17
ssI806
(dp8632
g3
S'CHFJPY'
p8633
sg5
g6
(g10
S'\xf3\x84\xd8k\xd5\xdc[@'
p8634
tp8635
Rp8636
sg16
g17
ssI812
(dp8637
g3
S'CHFJPY'
p8638
sg5
g6
(g10
S'\xce\x17\xfb\x1f\xb0\xd7[@'
p8639
tp8640
Rp8641
sg16
g33
ssI813
(dp8642
g3
S'CHFJPY'
p8643
sg5
g6
(g10
S'\xc2\xb3\xe4>\xa8\x04\\@'
p8644
tp8645
Rp8646
sg16
g33
ssI814
(dp8647
g3
S'CHFJPY'
p8648
sg5
g6
(g10
S'`\x06\xf4Up\x12\\@'
p8649
tp8650
Rp8651
sg16
g33
ssI817
(dp8652
g3
S'CHFJPY'
p8653
sg5
g6
(g10
S'U\xff/e*\\\\@'
p8654
tp8655
Rp8656
sg16
g17
ssI820
(dp8657
g3
S'CHFJPY'
p8658
sg5
g6
(g10
S'\xf0\x99\xb4\xfcZ\x07\\@'
p8659
tp8660
Rp8661
sg16
g17
ssI822
(dp8662
g3
S'CHFJPY'
p8663
sg5
g6
(g10
S'2\xe6%=w\xf1[@'
p8664
tp8665
Rp8666
sg16
g17
ssI823
(dp8667
g3
S'CHFJPY'
p8668
sg5
g6
(g10
S'\xf2\n\xf7\x90\x86\xd2[@'
p8669
tp8670
Rp8671
sg16
g17
ssI824
(dp8672
g3
S'CHFJPY'
p8673
sg5
g6
(g10
S'3X\xd4\xe8V\x95[@'
p8674
tp8675
Rp8676
sg16
g17
ssI826
(dp8677
g3
S'CHFJPY'
p8678
sg5
g6
(g10
S'\xbe3\x862%\x91[@'
p8679
tp8680
Rp8681
sg16
g17
ssI827
(dp8682
g3
S'CHFJPY'
p8683
sg5
g6
(g10
S'\xe4\xac\xf0`\xe0j[@'
p8684
tp8685
Rp8686
sg16
g17
ssI830
(dp8687
g3
S'CHFJPY'
p8688
sg5
g6
(g10
S'2\xfc\x1c\xdd\xf8T[@'
p8689
tp8690
Rp8691
sg16
g33
ssI832
(dp8692
g3
S'CHFJPY'
p8693
sg5
g6
(g10
S'\xcd1\xc1d,^[@'
p8694
tp8695
Rp8696
sg16
g33
ssI833
(dp8697
g3
S'CHFJPY'
p8698
sg5
g6
(g10
S'\xbe\x9a\xc6\xde\x83?[@'
p8699
tp8700
Rp8701
sg16
g33
ssI836
(dp8702
g3
S'CHFJPY'
p8703
sg5
g6
(g10
S'\x9e\x90\x07\x199Q[@'
p8704
tp8705
Rp8706
sg16
g33
ssI837
(dp8707
g3
S'CHFJPY'
p8708
sg5
g6
(g10
S'\xcf\xa2*\xb9\xd2z[@'
p8709
tp8710
Rp8711
sg16
g33
ssI840
(dp8712
g3
S'CHFJPY'
p8713
sg5
g6
(g10
S'\xe6\xd7\xe2w\x89\x80[@'
p8714
tp8715
Rp8716
sg16
g33
ssI844
(dp8717
g3
S'CHFJPY'
p8718
sg5
g6
(g10
S'E~\xad\xa7\xf0\xc8[@'
p8719
tp8720
Rp8721
sg16
g17
ssI851
(dp8722
g3
S'CHFJPY'
p8723
sg5
g6
(g10
S'\xfd\xd95\xfa\xb8_[@'
p8724
tp8725
Rp8726
sg16
g17
ssI852
(dp8727
g3
S'CHFJPY'
p8728
sg5
g6
(g10
S'\x1d\xbe\xbc\xc5\xf9\x7f[@'
p8729
tp8730
Rp8731
sg16
g33
ssI854
(dp8732
g3
S'CHFJPY'
p8733
sg5
g6
(g10
S'\xbb\xac\x0f\xc68\x7f[@'
p8734
tp8735
Rp8736
sg16
g33
ssI856
(dp8737
g3
S'CHFJPY'
p8738
sg5
g6
(g10
S'\x14\xac\xde\x89\xf9O[@'
p8739
tp8740
Rp8741
sg16
g33
ssI858
(dp8742
g3
S'CHFJPY'
p8743
sg5
g6
(g10
S"U'\x1c~\x05\xcd[@"
p8744
tp8745
Rp8746
sg16
g17
ssI860
(dp8747
g3
S'CHFJPY'
p8748
sg5
g6
(g10
S'\xc2\xdc\xf4\x0e\xc0\xa8[@'
p8749
tp8750
Rp8751
sg16
g17
ssI862
(dp8752
g3
S'CHFJPY'
p8753
sg5
g6
(g10
S'Z\x02\x183f\xb4[@'
p8754
tp8755
Rp8756
sg16
g17
ssI865
(dp8757
g3
S'CHFJPY'
p8758
sg5
g6
(g10
S'\xec\x93i\x08DP[@'
p8759
tp8760
Rp8761
sg16
g33
ssI868
(dp8762
g3
S'CHFJPY'
p8763
sg5
g6
(g10
S'\xdd\xfd\xe8\xf5\xe6o[@'
p8764
tp8765
Rp8766
sg16
g33
ssI869
(dp8767
g3
S'CHFJPY'
p8768
sg5
g6
(g10
S'L\x1b\xed\xef\xbe\x8e[@'
p8769
tp8770
Rp8771
sg16
g33
ssa.